
rpn.elf:     file format elf32-msp430


Disassembly of section .text:

0000c000 <__watchdog_support>:
    c000:	55 42 20 01 	mov.b	&0x0120,r5	
    c004:	35 d0 08 5a 	bis	#23048,	r5	;#0x5a08
    c008:	82 45 00 02 	mov	r5,	&0x0200	

0000c00c <__init_stack>:
    c00c:	31 40 00 04 	mov	#1024,	r1	;#0x0400

0000c010 <__do_copy_data>:
    c010:	3f 40 00 00 	mov	#0,	r15	;#0x0000
    c014:	0f 93       	tst	r15		
    c016:	08 24       	jz	$+18     	;abs 0xc028
    c018:	92 42 00 02 	mov	&0x0200,&0x0120	
    c01c:	20 01 
    c01e:	2f 83       	decd	r15		
    c020:	9f 4f 7c ca 	mov	-13700(r15),512(r15);0xca7c(r15), 0x0200(r15)
    c024:	00 02 
    c026:	f8 23       	jnz	$-14     	;abs 0xc018

0000c028 <__do_clear_bss>:
    c028:	3f 40 00 00 	mov	#0,	r15	;#0x0000
    c02c:	0f 93       	tst	r15		
    c02e:	07 24       	jz	$+16     	;abs 0xc03e
    c030:	92 42 00 02 	mov	&0x0200,&0x0120	
    c034:	20 01 
    c036:	1f 83       	dec	r15		
    c038:	cf 43 00 02 	mov.b	#0,	512(r15);r3 As==00, 0x0200(r15)
    c03c:	f9 23       	jnz	$-12     	;abs 0xc030

0000c03e <main>:
    c03e:	31 50 c8 ff 	add	#-56,	r1	;#0xffc8
    c042:	b2 40 80 5a 	mov	#23168,	&0x0120	;#0x5a80
    c046:	20 01 
    c048:	5f 42 ff 10 	mov.b	&0x10ff,r15	
    c04c:	c2 4f 57 00 	mov.b	r15,	&0x0057	
    c050:	5f 42 fe 10 	mov.b	&0x10fe,r15	
    c054:	c2 4f 56 00 	mov.b	r15,	&0x0056	
    c058:	3f 40 80 25 	mov	#9600,	r15	;#0x2580
    c05c:	b0 12 90 c7 	call	#0xc790	
    c060:	81 43 0e 00 	mov	#0,	14(r1)	;r3 As==00, 0x000e(r1)
    c064:	81 43 10 00 	mov	#0,	16(r1)	;r3 As==00, 0x0010(r1)
    c068:	81 43 12 00 	mov	#0,	18(r1)	;r3 As==00, 0x0012(r1)
    c06c:	81 43 14 00 	mov	#0,	20(r1)	;r3 As==00, 0x0014(r1)
    c070:	81 43 00 00 	mov	#0,	0(r1)	;r3 As==00, 0x0000(r1)
    c074:	81 43 02 00 	mov	#0,	2(r1)	;r3 As==00, 0x0002(r1)
    c078:	0f 41       	mov	r1,	r15	
    c07a:	3f 50 18 00 	add	#24,	r15	;#0x0018
    c07e:	3e 40 20 00 	mov	#32,	r14	;#0x0020
    c082:	0d 4e       	mov	r14,	r13	
    c084:	0e 43       	clr	r14		
    c086:	b0 12 36 c8 	call	#0xc836	
    c08a:	3f 40 6c c9 	mov	#-13972,r15	;#0xc96c
    c08e:	b0 12 68 c4 	call	#0xc468	
    c092:	b0 12 60 c6 	call	#0xc660	
    c096:	c1 4f 04 00 	mov.b	r15,	4(r1)	;0x0004(r1)
    c09a:	2c 3c       	jmp	$+90     	;abs 0xc0f4
    c09c:	f1 92 04 00 	cmp.b	#8,	4(r1)	;r2 As==11, 0x0004(r1)
    c0a0:	17 20       	jnz	$+48     	;abs 0xc0d0
    c0a2:	81 93 02 00 	tst	2(r1)		;0x0002(r1)
    c0a6:	22 24       	jz	$+70     	;abs 0xc0ec
    c0a8:	b1 53 02 00 	add	#-1,	2(r1)	;r3 As==11, 0x0002(r1)
    c0ac:	0f 41       	mov	r1,	r15	
    c0ae:	3f 50 18 00 	add	#24,	r15	;#0x0018
    c0b2:	1f 51 02 00 	add	2(r1),	r15	;0x0002(r1)
    c0b6:	cf 43 00 00 	mov.b	#0,	0(r15)	;r3 As==00, 0x0000(r15)
    c0ba:	7f 42       	mov.b	#8,	r15	;r2 As==11
    c0bc:	b0 12 5a c6 	call	#0xc65a	
    c0c0:	7f 40 20 00 	mov.b	#32,	r15	;#0x0020
    c0c4:	b0 12 5a c6 	call	#0xc65a	
    c0c8:	7f 42       	mov.b	#8,	r15	;r2 As==11
    c0ca:	b0 12 5a c6 	call	#0xc65a	
    c0ce:	0e 3c       	jmp	$+30     	;abs 0xc0ec
    c0d0:	0f 41       	mov	r1,	r15	
    c0d2:	3f 50 18 00 	add	#24,	r15	;#0x0018
    c0d6:	1f 51 02 00 	add	2(r1),	r15	;0x0002(r1)
    c0da:	df 41 04 00 	mov.b	4(r1),	0(r15)	;0x0004(r1), 0x0000(r15)
    c0de:	00 00 
    c0e0:	91 53 02 00 	inc	2(r1)		;0x0002(r1)
    c0e4:	5f 41 04 00 	mov.b	4(r1),	r15	;0x0004(r1)
    c0e8:	b0 12 5a c6 	call	#0xc65a	
    c0ec:	b0 12 60 c6 	call	#0xc660	
    c0f0:	c1 4f 04 00 	mov.b	r15,	4(r1)	;0x0004(r1)
    c0f4:	f1 90 0d 00 	cmp.b	#13,	4(r1)	;#0x000d, 0x0004(r1)
    c0f8:	04 00 
    c0fa:	d0 23       	jnz	$-94     	;abs 0xc09c
    c0fc:	0f 41       	mov	r1,	r15	
    c0fe:	3f 50 18 00 	add	#24,	r15	;#0x0018
    c102:	81 4f 16 00 	mov	r15,	22(r1)	;0x0016(r1)
    c106:	3f 40 6f c9 	mov	#-13969,r15	;#0xc96f
    c10a:	b0 12 68 c4 	call	#0xc468	
    c10e:	d1 3c       	jmp	$+420    	;abs 0xc2b2
    c110:	1f 41 0c 00 	mov	12(r1),	r15	;0x000c(r1)
    c114:	6f 4f       	mov.b	@r15,	r15	
    c116:	8f 11       	sxt	r15		
    c118:	0e 4f       	mov	r15,	r14	
    c11a:	3f 40 72 c9 	mov	#-13966,r15	;#0xc972
    c11e:	b0 12 24 c8 	call	#0xc824	
    c122:	0f 93       	tst	r15		
    c124:	ae 24       	jz	$+350    	;abs 0xc282
    c126:	1f 41 0c 00 	mov	12(r1),	r15	;0x000c(r1)
    c12a:	1f 53       	inc	r15		
    c12c:	6f 4f       	mov.b	@r15,	r15	
    c12e:	4f 93       	tst.b	r15		
    c130:	a8 20       	jnz	$+338    	;abs 0xc282
    c132:	a1 93 00 00 	cmp	#2,	0(r1)	;r3 As==10, 0x0000(r1)
    c136:	0b 34       	jge	$+24     	;abs 0xc14e
    c138:	1f 41 0c 00 	mov	12(r1),	r15	;0x000c(r1)
    c13c:	6f 4f       	mov.b	@r15,	r15	
    c13e:	7f 90 3f 00 	cmp.b	#63,	r15	;#0x003f
    c142:	b6 24       	jz	$+366    	;abs 0xc2b0
    c144:	3f 40 7a c9 	mov	#-13958,r15	;#0xc97a
    c148:	b0 12 68 c4 	call	#0xc468	
    c14c:	b1 3c       	jmp	$+356    	;abs 0xc2b0
    c14e:	1f 41 0c 00 	mov	12(r1),	r15	;0x000c(r1)
    c152:	6f 4f       	mov.b	@r15,	r15	
    c154:	7f 90 3f 00 	cmp.b	#63,	r15	;#0x003f
    c158:	19 24       	jz	$+52     	;abs 0xc18c
    c15a:	b1 53 00 00 	add	#-1,	0(r1)	;r3 As==11, 0x0000(r1)
    c15e:	2f 41       	mov	@r1,	r15	
    c160:	0f 5f       	rla	r15		
    c162:	0f 51       	add	r1,	r15	
    c164:	3f 50 0e 00 	add	#14,	r15	;#0x000e
    c168:	a1 4f 06 00 	mov	@r15,	6(r1)	;0x0006(r1)
    c16c:	2f 41       	mov	@r1,	r15	
    c16e:	0f 5f       	rla	r15		
    c170:	0f 51       	add	r1,	r15	
    c172:	3f 50 0e 00 	add	#14,	r15	;#0x000e
    c176:	8f 43 00 00 	mov	#0,	0(r15)	;r3 As==00, 0x0000(r15)
    c17a:	b1 53 00 00 	add	#-1,	0(r1)	;r3 As==11, 0x0000(r1)
    c17e:	2f 41       	mov	@r1,	r15	
    c180:	0f 5f       	rla	r15		
    c182:	0f 51       	add	r1,	r15	
    c184:	3f 50 0e 00 	add	#14,	r15	;#0x000e
    c188:	a1 4f 08 00 	mov	@r15,	8(r1)	;0x0008(r1)
    c18c:	1f 41 0c 00 	mov	12(r1),	r15	;0x000c(r1)
    c190:	6f 4f       	mov.b	@r15,	r15	
    c192:	8f 11       	sxt	r15		
    c194:	3f 50 db ff 	add	#-37,	r15	;#0xffdb
    c198:	3f 90 3a 00 	cmp	#58,	r15	;#0x003a
    c19c:	6b 2c       	jc	$+216    	;abs 0xc274
    c19e:	0f 5f       	rla	r15		
    c1a0:	3f 50 d0 c9 	add	#-13872,r15	;#0xc9d0
    c1a4:	2f 4f       	mov	@r15,	r15	
    c1a6:	00 4f       	br	r15		
    c1a8:	1e 41 08 00 	mov	8(r1),	r14	;0x0008(r1)
    c1ac:	1f 41 06 00 	mov	6(r1),	r15	;0x0006(r1)
    c1b0:	b0 12 2e c3 	call	#0xc32e	
    c1b4:	0e 4f       	mov	r15,	r14	
    c1b6:	2f 41       	mov	@r1,	r15	
    c1b8:	0f 5f       	rla	r15		
    c1ba:	0f 51       	add	r1,	r15	
    c1bc:	3f 50 0e 00 	add	#14,	r15	;#0x000e
    c1c0:	8f 4e 00 00 	mov	r14,	0(r15)	;0x0000(r15)
    c1c4:	91 53 00 00 	inc	0(r1)		;0x0000(r1)
    c1c8:	5b 3c       	jmp	$+184    	;abs 0xc280
    c1ca:	1e 41 08 00 	mov	8(r1),	r14	;0x0008(r1)
    c1ce:	1f 41 06 00 	mov	6(r1),	r15	;0x0006(r1)
    c1d2:	b0 12 ec c3 	call	#0xc3ec	
    c1d6:	0e 4f       	mov	r15,	r14	
    c1d8:	2f 41       	mov	@r1,	r15	
    c1da:	0f 5f       	rla	r15		
    c1dc:	0f 51       	add	r1,	r15	
    c1de:	3f 50 0e 00 	add	#14,	r15	;#0x000e
    c1e2:	8f 4e 00 00 	mov	r14,	0(r15)	;0x0000(r15)
    c1e6:	91 53 00 00 	inc	0(r1)		;0x0000(r1)
    c1ea:	4a 3c       	jmp	$+150    	;abs 0xc280
    c1ec:	1e 41 08 00 	mov	8(r1),	r14	;0x0008(r1)
    c1f0:	1f 41 06 00 	mov	6(r1),	r15	;0x0006(r1)
    c1f4:	b0 12 32 c3 	call	#0xc332	
    c1f8:	0e 4f       	mov	r15,	r14	
    c1fa:	2f 41       	mov	@r1,	r15	
    c1fc:	0f 5f       	rla	r15		
    c1fe:	0f 51       	add	r1,	r15	
    c200:	3f 50 0e 00 	add	#14,	r15	;#0x000e
    c204:	8f 4e 00 00 	mov	r14,	0(r15)	;0x0000(r15)
    c208:	91 53 00 00 	inc	0(r1)		;0x0000(r1)
    c20c:	39 3c       	jmp	$+116    	;abs 0xc280
    c20e:	1e 41 08 00 	mov	8(r1),	r14	;0x0008(r1)
    c212:	1f 41 06 00 	mov	6(r1),	r15	;0x0006(r1)
    c216:	b0 12 9e c3 	call	#0xc39e	
    c21a:	0e 4f       	mov	r15,	r14	
    c21c:	2f 41       	mov	@r1,	r15	
    c21e:	0f 5f       	rla	r15		
    c220:	0f 51       	add	r1,	r15	
    c222:	3f 50 0e 00 	add	#14,	r15	;#0x000e
    c226:	8f 4e 00 00 	mov	r14,	0(r15)	;0x0000(r15)
    c22a:	91 53 00 00 	inc	0(r1)		;0x0000(r1)
    c22e:	28 3c       	jmp	$+82     	;abs 0xc280
    c230:	1e 41 08 00 	mov	8(r1),	r14	;0x0008(r1)
    c234:	1f 41 06 00 	mov	6(r1),	r15	;0x0006(r1)
    c238:	b0 12 c0 c3 	call	#0xc3c0	
    c23c:	0e 4f       	mov	r15,	r14	
    c23e:	2f 41       	mov	@r1,	r15	
    c240:	0f 5f       	rla	r15		
    c242:	0f 51       	add	r1,	r15	
    c244:	3f 50 0e 00 	add	#14,	r15	;#0x000e
    c248:	8f 4e 00 00 	mov	r14,	0(r15)	;0x0000(r15)
    c24c:	91 53 00 00 	inc	0(r1)		;0x0000(r1)
    c250:	17 3c       	jmp	$+48     	;abs 0xc280
    c252:	1e 41 08 00 	mov	8(r1),	r14	;0x0008(r1)
    c256:	1f 41 06 00 	mov	6(r1),	r15	;0x0006(r1)
    c25a:	b0 12 6c c3 	call	#0xc36c	
    c25e:	0e 4f       	mov	r15,	r14	
    c260:	2f 41       	mov	@r1,	r15	
    c262:	0f 5f       	rla	r15		
    c264:	0f 51       	add	r1,	r15	
    c266:	3f 50 0e 00 	add	#14,	r15	;#0x000e
    c26a:	8f 4e 00 00 	mov	r14,	0(r15)	;0x0000(r15)
    c26e:	91 53 00 00 	inc	0(r1)		;0x0000(r1)
    c272:	06 3c       	jmp	$+14     	;abs 0xc280
    c274:	3f 40 98 c9 	mov	#-13928,r15	;#0xc998
    c278:	b0 12 68 c4 	call	#0xc468	
    c27c:	01 3c       	jmp	$+4      	;abs 0xc280
    c27e:	03 43       	nop			
    c280:	17 3c       	jmp	$+48     	;abs 0xc2b0
    c282:	a1 92 00 00 	cmp	#4,	0(r1)	;r2 As==10, 0x0000(r1)
    c286:	05 20       	jnz	$+12     	;abs 0xc292
    c288:	3f 40 ae c9 	mov	#-13906,r15	;#0xc9ae
    c28c:	b0 12 68 c4 	call	#0xc468	
    c290:	1c 3c       	jmp	$+58     	;abs 0xc2ca
    c292:	1f 41 0c 00 	mov	12(r1),	r15	;0x000c(r1)
    c296:	b0 12 e0 c8 	call	#0xc8e0	
    c29a:	0e 4f       	mov	r15,	r14	
    c29c:	2f 41       	mov	@r1,	r15	
    c29e:	0f 5f       	rla	r15		
    c2a0:	0f 51       	add	r1,	r15	
    c2a2:	3f 50 0e 00 	add	#14,	r15	;#0x000e
    c2a6:	8f 4e 00 00 	mov	r14,	0(r15)	;0x0000(r15)
    c2aa:	91 53 00 00 	inc	0(r1)		;0x0000(r1)
    c2ae:	01 3c       	jmp	$+4      	;abs 0xc2b2
    c2b0:	03 43       	nop			
    c2b2:	0f 41       	mov	r1,	r15	
    c2b4:	3f 50 16 00 	add	#22,	r15	;#0x0016
    c2b8:	3e 40 bd c9 	mov	#-13891,r14	;#0xc9bd
    c2bc:	b0 12 a0 c8 	call	#0xc8a0	
    c2c0:	81 4f 0c 00 	mov	r15,	12(r1)	;0x000c(r1)
    c2c4:	81 93 0c 00 	tst	12(r1)		;0x000c(r1)
    c2c8:	23 23       	jnz	$-440    	;abs 0xc110
    c2ca:	3f 40 6f c9 	mov	#-13969,r15	;#0xc96f
    c2ce:	b0 12 68 c4 	call	#0xc468	
    c2d2:	81 43 0a 00 	mov	#0,	10(r1)	;r3 As==00, 0x000a(r1)
    c2d6:	1d 3c       	jmp	$+60     	;abs 0xc312
    c2d8:	a1 91 0a 00 	cmp	@r1,	10(r1)	;0x000a(r1)
    c2dc:	11 34       	jge	$+36     	;abs 0xc300
    c2de:	1f 41 0a 00 	mov	10(r1),	r15	;0x000a(r1)
    c2e2:	0f 5f       	rla	r15		
    c2e4:	0f 51       	add	r1,	r15	
    c2e6:	3f 50 0e 00 	add	#14,	r15	;#0x000e
    c2ea:	2f 4f       	mov	@r15,	r15	
    c2ec:	0f 12       	push	r15		
    c2ee:	11 12 0e 00 	push	14(r1)		;0x000e(r1)
    c2f2:	30 12 bf c9 	push	#-13889	;#0xc9bf
    c2f6:	b0 12 30 c5 	call	#0xc530	
    c2fa:	31 50 06 00 	add	#6,	r1	;#0x0006
    c2fe:	07 3c       	jmp	$+16     	;abs 0xc30e
    c300:	11 12 0c 00 	push	12(r1)		;0x000c(r1)
    c304:	30 12 c8 c9 	push	#-13880	;#0xc9c8
    c308:	b0 12 30 c5 	call	#0xc530	
    c30c:	21 52       	add	#4,	r1	;r2 As==10
    c30e:	91 53 0a 00 	inc	10(r1)		;0x000a(r1)
    c312:	a1 92 0a 00 	cmp	#4,	10(r1)	;r2 As==10, 0x000a(r1)
    c316:	e0 3b       	jl	$-62     	;abs 0xc2d8
    c318:	3f 40 6f c9 	mov	#-13969,r15	;#0xc96f
    c31c:	b0 12 68 c4 	call	#0xc468	
    c320:	30 40 74 c0 	br	#0xc074	

0000c324 <__stop_progExec__>:
    c324:	32 d0 f0 00 	bis	#240,	r2	;#0x00f0
    c328:	fd 3f       	jmp	$-4      	;abs 0xc324

0000c32a <__ctors_end>:
    c32a:	30 40 6a c9 	br	#0xc96a	

0000c32e <add>:
    c32e:	0f 5e       	add	r14,	r15	
    c330:	30 41       	ret			

0000c332 <divd>:
    c332:	0d 43       	clr	r13		
    c334:	0f 93       	tst	r15		
    c336:	0f 38       	jl	$+32     	;abs 0xc356
    c338:	0e 93       	tst	r14		
    c33a:	12 38       	jl	$+38     	;abs 0xc360

0000c33c <.pos>:
    c33c:	0f 8e       	sub	r14,	r15	
    c33e:	1d 53       	inc	r13		
    c340:	0f 9e       	cmp	r14,	r15	
    c342:	fc 37       	jge	$-6      	;abs 0xc33c
    c344:	0f 4d       	mov	r13,	r15	
    c346:	30 41       	ret			

0000c348 <.neg>:
    c348:	0f 8e       	sub	r14,	r15	
    c34a:	1d 53       	inc	r13		
    c34c:	0f 9e       	cmp	r14,	r15	
    c34e:	fc 37       	jge	$-6      	;abs 0xc348
    c350:	0c 8d       	sub	r13,	r12	
    c352:	0f 4c       	mov	r12,	r15	
    c354:	30 41       	ret			

0000c356 <.changer15>:
    c356:	3f e3       	inv	r15		
    c358:	1f 53       	inc	r15		
    c35a:	0e 93       	tst	r14		
    c35c:	04 38       	jl	$+10     	;abs 0xc366
    c35e:	f4 23       	jnz	$-22     	;abs 0xc348

0000c360 <.changer14>:
    c360:	3e e3       	inv	r14		
    c362:	1e 53       	inc	r14		
    c364:	f1 23       	jnz	$-28     	;abs 0xc348

0000c366 <.r14Nr15>:
    c366:	3e e3       	inv	r14		
    c368:	1e 53       	inc	r14		
    c36a:	e8 23       	jnz	$-46     	;abs 0xc33c

0000c36c <mod>:
    c36c:	0d 43       	clr	r13		
    c36e:	0f 93       	tst	r15		
    c370:	0b 38       	jl	$+24     	;abs 0xc388
    c372:	0e 93       	tst	r14		
    c374:	0e 38       	jl	$+30     	;abs 0xc392

0000c376 <.pos>:
    c376:	0f 8e       	sub	r14,	r15	
    c378:	0f 9e       	cmp	r14,	r15	
    c37a:	fd 37       	jge	$-4      	;abs 0xc376
    c37c:	30 41       	ret			

0000c37e <.neg>:
    c37e:	0f 8e       	sub	r14,	r15	
    c380:	0f 9e       	cmp	r14,	r15	
    c382:	fd 37       	jge	$-4      	;abs 0xc37e
    c384:	0f 8e       	sub	r14,	r15	
    c386:	30 41       	ret			

0000c388 <.changer15>:
    c388:	3f e3       	inv	r15		
    c38a:	1f 53       	inc	r15		
    c38c:	0e 93       	tst	r14		
    c38e:	04 38       	jl	$+10     	;abs 0xc398
    c390:	f6 23       	jnz	$-18     	;abs 0xc37e

0000c392 <.changer14>:
    c392:	3e e3       	inv	r14		
    c394:	1e 53       	inc	r14		
    c396:	f3 23       	jnz	$-24     	;abs 0xc37e

0000c398 <.r14Nr15>:
    c398:	3e e3       	inv	r14		
    c39a:	1e 53       	inc	r14		
    c39c:	ec 23       	jnz	$-38     	;abs 0xc376

0000c39e <mul>:
    c39e:	0d 43       	clr	r13		
    c3a0:	0e 93       	tst	r14		
    c3a2:	0b 38       	jl	$+24     	;abs 0xc3ba

0000c3a4 <.posMain>:
    c3a4:	0d 5f       	add	r15,	r13	
    c3a6:	1e 83       	dec	r14		
    c3a8:	fd 23       	jnz	$-4      	;abs 0xc3a4
    c3aa:	0f 4d       	mov	r13,	r15	
    c3ac:	30 41       	ret			

0000c3ae <.negMain>:
    c3ae:	0d 5f       	add	r15,	r13	
    c3b0:	1e 83       	dec	r14		
    c3b2:	fd 23       	jnz	$-4      	;abs 0xc3ae
    c3b4:	0c 8d       	sub	r13,	r12	
    c3b6:	0f 4c       	mov	r12,	r15	
    c3b8:	30 41       	ret			

0000c3ba <.changer14>:
    c3ba:	3e e3       	inv	r14		
    c3bc:	1e 53       	inc	r14		
    c3be:	f7 23       	jnz	$-16     	;abs 0xc3ae

0000c3c0 <powr>:
    c3c0:	0e 93       	tst	r14		
    c3c2:	0e 24       	jz	$+30     	;abs 0xc3e0
    c3c4:	1e 93       	cmp	#1,	r14	;r3 As==01
    c3c6:	0f 24       	jz	$+32     	;abs 0xc3e6
    c3c8:	0d 43       	clr	r13		
    c3ca:	0b 4f       	mov	r15,	r11	
    c3cc:	0c 4f       	mov	r15,	r12	
    c3ce:	1e 83       	dec	r14		

0000c3d0 <.loop>:
    c3d0:	0d 5b       	add	r11,	r13	
    c3d2:	1c 83       	dec	r12		
    c3d4:	fd 23       	jnz	$-4      	;abs 0xc3d0

0000c3d6 <.powerloop>:
    c3d6:	0c 4f       	mov	r15,	r12	
    c3d8:	0b 4d       	mov	r13,	r11	
    c3da:	0d 43       	clr	r13		
    c3dc:	1e 83       	dec	r14		
    c3de:	f8 23       	jnz	$-14     	;abs 0xc3d0

0000c3e0 <.zero>:
    c3e0:	0f 43       	clr	r15		
    c3e2:	1f 43       	mov	#1,	r15	;r3 As==01
    c3e4:	30 41       	ret			

0000c3e6 <.one>:
    c3e6:	30 41       	ret			

0000c3e8 <.end>:
    c3e8:	0f 4b       	mov	r11,	r15	
    c3ea:	30 41       	ret			

0000c3ec <sub>:
    c3ec:	0f 8e       	sub	r14,	r15	
    c3ee:	30 41       	ret			

0000c3f0 <_xtoa>:
    c3f0:	0b 12       	push	r11		
    c3f2:	0a 12       	push	r10		
    c3f4:	09 12       	push	r9		
    c3f6:	08 12       	push	r8		
    c3f8:	07 12       	push	r7		
    c3fa:	0a 4e       	mov	r14,	r10	
    c3fc:	0b 4f       	mov	r15,	r11	
    c3fe:	07 4d       	mov	r13,	r7	
    c400:	0e 93       	tst	r14		
    c402:	04 20       	jnz	$+10     	;abs 0xc40c
    c404:	0b 93       	tst	r11		
    c406:	1f 24       	jz	$+64     	;abs 0xc446
    c408:	01 3c       	jmp	$+4      	;abs 0xc40c
    c40a:	27 52       	add	#4,	r7	;r2 As==10
    c40c:	1b 97 02 00 	cmp	2(r7),	r11	;0x0002(r7)
    c410:	fc 2b       	jnc	$-6      	;abs 0xc40a
    c412:	02 20       	jnz	$+6      	;abs 0xc418
    c414:	2a 97       	cmp	@r7,	r10	
    c416:	f9 2b       	jnc	$-12     	;abs 0xc40a
    c418:	38 47       	mov	@r7+,	r8	
    c41a:	39 47       	mov	@r7+,	r9	
    c41c:	7f 40 30 00 	mov.b	#48,	r15	;#0x0030
    c420:	03 3c       	jmp	$+8      	;abs 0xc428
    c422:	5f 53       	inc.b	r15		
    c424:	0a 88       	sub	r8,	r10	
    c426:	0b 79       	subc	r9,	r11	
    c428:	0b 99       	cmp	r9,	r11	
    c42a:	04 28       	jnc	$+10     	;abs 0xc434
    c42c:	09 9b       	cmp	r11,	r9	
    c42e:	f9 2b       	jnc	$-12     	;abs 0xc422
    c430:	0a 98       	cmp	r8,	r10	
    c432:	f7 2f       	jc	$-16     	;abs 0xc422
    c434:	b0 12 5a c6 	call	#0xc65a	
    c438:	18 f3       	and	#1,	r8	;r3 As==01
    c43a:	09 f3       	and	#0,	r9	;r3 As==00
    c43c:	08 93       	tst	r8		
    c43e:	07 20       	jnz	$+16     	;abs 0xc44e
    c440:	09 93       	tst	r9		
    c442:	ea 27       	jz	$-42     	;abs 0xc418
    c444:	04 3c       	jmp	$+10     	;abs 0xc44e
    c446:	7f 40 30 00 	mov.b	#48,	r15	;#0x0030
    c44a:	b0 12 5a c6 	call	#0xc65a	
    c44e:	37 41       	pop	r7		
    c450:	38 41       	pop	r8		
    c452:	39 41       	pop	r9		
    c454:	3a 41       	pop	r10		
    c456:	3b 41       	pop	r11		
    c458:	30 41       	ret			

0000c45a <_puth>:
    c45a:	3f f0 0f 00 	and	#15,	r15	;#0x000f
    c45e:	5f 4f 6c ca 	mov.b	-13716(r15),r15	;0xca6c(r15)
    c462:	b0 12 5a c6 	call	#0xc65a	
    c466:	30 41       	ret			

0000c468 <cio_print>:
    c468:	0b 12       	push	r11		
    c46a:	0b 4f       	mov	r15,	r11	
    c46c:	02 3c       	jmp	$+6      	;abs 0xc472
    c46e:	b0 12 5a c6 	call	#0xc65a	
    c472:	7f 4b       	mov.b	@r11+,	r15	
    c474:	4f 93       	tst.b	r15		
    c476:	fb 23       	jnz	$-8      	;abs 0xc46e
    c478:	3b 41       	pop	r11		
    c47a:	30 41       	ret			

0000c47c <cio_printi>:
    c47c:	0b 12       	push	r11		
    c47e:	0a 12       	push	r10		
    c480:	09 12       	push	r9		
    c482:	31 50 e0 ff 	add	#-32,	r1	;#0xffe0
    c486:	0b 4f       	mov	r15,	r11	
    c488:	0f 93       	tst	r15		
    c48a:	06 24       	jz	$+14     	;abs 0xc498
    c48c:	09 41       	mov	r1,	r9	
    c48e:	39 50 1e 00 	add	#30,	r9	;#0x001e
    c492:	3a 40 0f 00 	mov	#15,	r10	;#0x000f
    c496:	18 3c       	jmp	$+50     	;abs 0xc4c8
    c498:	7f 40 30 00 	mov.b	#48,	r15	;#0x0030
    c49c:	b0 12 5a c6 	call	#0xc65a	
    c4a0:	24 3c       	jmp	$+74     	;abs 0xc4ea
    c4a2:	3e 40 0a 00 	mov	#10,	r14	;#0x000a
    c4a6:	0f 4b       	mov	r11,	r15	
    c4a8:	b0 12 fa c7 	call	#0xc7fa	
    c4ac:	3f 50 30 00 	add	#48,	r15	;#0x0030
    c4b0:	89 4f 00 00 	mov	r15,	0(r9)	;0x0000(r9)
    c4b4:	3e 40 0a 00 	mov	#10,	r14	;#0x000a
    c4b8:	0f 4b       	mov	r11,	r15	
    c4ba:	b0 12 c8 c7 	call	#0xc7c8	
    c4be:	0b 4f       	mov	r15,	r11	
    c4c0:	3a 53       	add	#-1,	r10	;r3 As==11
    c4c2:	29 83       	decd	r9		
    c4c4:	0a 93       	tst	r10		
    c4c6:	02 24       	jz	$+6      	;abs 0xc4cc
    c4c8:	1b 93       	cmp	#1,	r11	;r3 As==01
    c4ca:	eb 37       	jge	$-40     	;abs 0xc4a2
    c4cc:	09 4a       	mov	r10,	r9	
    c4ce:	0b 43       	clr	r11		
    c4d0:	07 3c       	jmp	$+16     	;abs 0xc4e0
    c4d2:	0f 4a       	mov	r10,	r15	
    c4d4:	0f 5f       	rla	r15		
    c4d6:	0f 51       	add	r1,	r15	
    c4d8:	0f 5b       	add	r11,	r15	
    c4da:	6f 4f       	mov.b	@r15,	r15	
    c4dc:	b0 12 5a c6 	call	#0xc65a	
    c4e0:	19 53       	inc	r9		
    c4e2:	2b 53       	incd	r11		
    c4e4:	39 90 10 00 	cmp	#16,	r9	;#0x0010
    c4e8:	f4 23       	jnz	$-22     	;abs 0xc4d2
    c4ea:	31 50 20 00 	add	#32,	r1	;#0x0020
    c4ee:	39 41       	pop	r9		
    c4f0:	3a 41       	pop	r10		
    c4f2:	3b 41       	pop	r11		
    c4f4:	30 41       	ret			

0000c4f6 <cio_printb>:
    c4f6:	0b 12       	push	r11		
    c4f8:	0a 12       	push	r10		
    c4fa:	0a 4f       	mov	r15,	r10	
    c4fc:	0b 4e       	mov	r14,	r11	
    c4fe:	12 3c       	jmp	$+38     	;abs 0xc524
    c500:	0d 4a       	mov	r10,	r13	
    c502:	4e 4b       	mov.b	r11,	r14	
    c504:	7e f0 0f 00 	and.b	#15,	r14	;#0x000f
    c508:	4e 93       	tst.b	r14		
    c50a:	03 24       	jz	$+8      	;abs 0xc512
    c50c:	0d 11       	rra	r13		
    c50e:	7e 53       	add.b	#-1,	r14	;r3 As==11
    c510:	fb 3f       	jmp	$-8      	;abs 0xc508
    c512:	1d f3       	and	#1,	r13	;r3 As==01
    c514:	03 24       	jz	$+8      	;abs 0xc51c
    c516:	7f 40 31 00 	mov.b	#49,	r15	;#0x0031
    c51a:	02 3c       	jmp	$+6      	;abs 0xc520
    c51c:	7f 40 30 00 	mov.b	#48,	r15	;#0x0030
    c520:	b0 12 5a c6 	call	#0xc65a	
    c524:	3b 53       	add	#-1,	r11	;r3 As==11
    c526:	0b 93       	tst	r11		
    c528:	eb 37       	jge	$-40     	;abs 0xc500
    c52a:	3a 41       	pop	r10		
    c52c:	3b 41       	pop	r11		
    c52e:	30 41       	ret			

0000c530 <cio_printf>:
    c530:	0b 12       	push	r11		
    c532:	0a 12       	push	r10		
    c534:	09 12       	push	r9		
    c536:	08 12       	push	r8		
    c538:	0b 41       	mov	r1,	r11	
    c53a:	3b 50 0a 00 	add	#10,	r11	;#0x000a
    c53e:	3a 4b       	mov	@r11+,	r10	
    c540:	84 3c       	jmp	$+266    	;abs 0xc64a
    c542:	7f 90 25 00 	cmp.b	#37,	r15	;#0x0025
    c546:	7e 20       	jnz	$+254    	;abs 0xc644
    c548:	5f 4a 01 00 	mov.b	1(r10),	r15	;0x0001(r10)
    c54c:	2a 53       	incd	r10		
    c54e:	7f 90 6e 00 	cmp.b	#110,	r15	;#0x006e
    c552:	3e 24       	jz	$+126    	;abs 0xc5d0
    c554:	7f 90 6f 00 	cmp.b	#111,	r15	;#0x006f
    c558:	10 34       	jge	$+34     	;abs 0xc57a
    c55a:	7f 90 69 00 	cmp.b	#105,	r15	;#0x0069
    c55e:	23 24       	jz	$+72     	;abs 0xc5a6
    c560:	7f 90 6a 00 	cmp.b	#106,	r15	;#0x006a
    c564:	06 34       	jge	$+14     	;abs 0xc572
    c566:	4f 93       	tst.b	r15		
    c568:	73 24       	jz	$+232    	;abs 0xc650
    c56a:	7f 90 63 00 	cmp.b	#99,	r15	;#0x0063
    c56e:	6b 20       	jnz	$+216    	;abs 0xc646
    c570:	13 3c       	jmp	$+40     	;abs 0xc598
    c572:	7f 90 6c 00 	cmp.b	#108,	r15	;#0x006c
    c576:	67 20       	jnz	$+208    	;abs 0xc646
    c578:	2b 3c       	jmp	$+88     	;abs 0xc5d0
    c57a:	7f 90 75 00 	cmp.b	#117,	r15	;#0x0075
    c57e:	13 24       	jz	$+40     	;abs 0xc5a6
    c580:	7f 90 78 00 	cmp.b	#120,	r15	;#0x0078
    c584:	43 24       	jz	$+136    	;abs 0xc60c
    c586:	7f 90 73 00 	cmp.b	#115,	r15	;#0x0073
    c58a:	5d 20       	jnz	$+188    	;abs 0xc646
    c58c:	09 4b       	mov	r11,	r9	
    c58e:	29 53       	incd	r9		
    c590:	2f 4b       	mov	@r11,	r15	
    c592:	b0 12 68 c4 	call	#0xc468	
    c596:	05 3c       	jmp	$+12     	;abs 0xc5a2
    c598:	09 4b       	mov	r11,	r9	
    c59a:	29 53       	incd	r9		
    c59c:	6f 4b       	mov.b	@r11,	r15	
    c59e:	b0 12 5a c6 	call	#0xc65a	
    c5a2:	0b 49       	mov	r9,	r11	
    c5a4:	52 3c       	jmp	$+166    	;abs 0xc64a
    c5a6:	09 4b       	mov	r11,	r9	
    c5a8:	29 53       	incd	r9		
    c5aa:	2b 4b       	mov	@r11,	r11	
    c5ac:	7f 90 69 00 	cmp.b	#105,	r15	;#0x0069
    c5b0:	08 20       	jnz	$+18     	;abs 0xc5c2
    c5b2:	0b 93       	tst	r11		
    c5b4:	06 34       	jge	$+14     	;abs 0xc5c2
    c5b6:	3b e3       	inv	r11		
    c5b8:	1b 53       	inc	r11		
    c5ba:	7f 40 2d 00 	mov.b	#45,	r15	;#0x002d
    c5be:	b0 12 5a c6 	call	#0xc65a	
    c5c2:	3d 40 58 ca 	mov	#-13736,r13	;#0xca58
    c5c6:	0e 4b       	mov	r11,	r14	
    c5c8:	0f 43       	clr	r15		
    c5ca:	b0 12 f0 c3 	call	#0xc3f0	
    c5ce:	e9 3f       	jmp	$-44     	;abs 0xc5a2
    c5d0:	08 4b       	mov	r11,	r8	
    c5d2:	28 52       	add	#4,	r8	;r2 As==10
    c5d4:	29 4b       	mov	@r11,	r9	
    c5d6:	1b 4b 02 00 	mov	2(r11),	r11	;0x0002(r11)
    c5da:	7f 90 6c 00 	cmp.b	#108,	r15	;#0x006c
    c5de:	0e 20       	jnz	$+30     	;abs 0xc5fc
    c5e0:	0b 93       	tst	r11		
    c5e2:	0c 34       	jge	$+26     	;abs 0xc5fc
    c5e4:	0c 49       	mov	r9,	r12	
    c5e6:	0d 4b       	mov	r11,	r13	
    c5e8:	3c e3       	inv	r12		
    c5ea:	3d e3       	inv	r13		
    c5ec:	1c 53       	inc	r12		
    c5ee:	0d 63       	adc	r13		
    c5f0:	09 4c       	mov	r12,	r9	
    c5f2:	0b 4d       	mov	r13,	r11	
    c5f4:	7f 40 2d 00 	mov.b	#45,	r15	;#0x002d
    c5f8:	b0 12 5a c6 	call	#0xc65a	
    c5fc:	3d 40 44 ca 	mov	#-13756,r13	;#0xca44
    c600:	0e 49       	mov	r9,	r14	
    c602:	0f 4b       	mov	r11,	r15	
    c604:	b0 12 f0 c3 	call	#0xc3f0	
    c608:	0b 48       	mov	r8,	r11	
    c60a:	1f 3c       	jmp	$+64     	;abs 0xc64a
    c60c:	09 4b       	mov	r11,	r9	
    c60e:	29 53       	incd	r9		
    c610:	2b 4b       	mov	@r11,	r11	
    c612:	0f 4b       	mov	r11,	r15	
    c614:	8f 10       	swpb	r15		
    c616:	8f 11       	sxt	r15		
    c618:	0f 11       	rra	r15		
    c61a:	0f 11       	rra	r15		
    c61c:	0f 11       	rra	r15		
    c61e:	0f 11       	rra	r15		
    c620:	b0 12 5a c4 	call	#0xc45a	
    c624:	0f 4b       	mov	r11,	r15	
    c626:	8f 10       	swpb	r15		
    c628:	8f 11       	sxt	r15		
    c62a:	b0 12 5a c4 	call	#0xc45a	
    c62e:	0f 4b       	mov	r11,	r15	
    c630:	0f 11       	rra	r15		
    c632:	0f 11       	rra	r15		
    c634:	0f 11       	rra	r15		
    c636:	0f 11       	rra	r15		
    c638:	b0 12 5a c4 	call	#0xc45a	
    c63c:	0f 4b       	mov	r11,	r15	
    c63e:	b0 12 5a c4 	call	#0xc45a	
    c642:	af 3f       	jmp	$-160    	;abs 0xc5a2
    c644:	1a 53       	inc	r10		
    c646:	b0 12 5a c6 	call	#0xc65a	
    c64a:	6f 4a       	mov.b	@r10,	r15	
    c64c:	4f 93       	tst.b	r15		
    c64e:	79 23       	jnz	$-268    	;abs 0xc542
    c650:	38 41       	pop	r8		
    c652:	39 41       	pop	r9		
    c654:	3a 41       	pop	r10		
    c656:	3b 41       	pop	r11		
    c658:	30 41       	ret			

0000c65a <cio_printc>:
    c65a:	b0 12 a6 c7 	call	#0xc7a6	
    c65e:	30 41       	ret			

0000c660 <cio_getc>:
    c660:	b0 12 ba c7 	call	#0xc7ba	
    c664:	30 41       	ret			

0000c666 <serial_clk_init>:
    c666:	f2 d0 06 00 	bis.b	#6,	&0x0026	;#0x0006
    c66a:	26 00 
    c66c:	f2 d0 06 00 	bis.b	#6,	&0x0041	;#0x0006
    c670:	41 00 
    c672:	f2 d0 80 ff 	bis.b	#-128,	&0x0061	;#0xff80
    c676:	61 00 
    c678:	3e 90 00 12 	cmp	#4608,	r14	;#0x1200
    c67c:	04 20       	jnz	$+10     	;abs 0xc686
    c67e:	3f 90 7a 00 	cmp	#122,	r15	;#0x007a
    c682:	67 20       	jnz	$+208    	;abs 0xc752
    c684:	07 3c       	jmp	$+16     	;abs 0xc694
    c686:	3e 90 00 24 	cmp	#9216,	r14	;#0x2400
    c68a:	63 20       	jnz	$+200    	;abs 0xc752
    c68c:	3f 90 f4 00 	cmp	#244,	r15	;#0x00f4
    c690:	60 20       	jnz	$+194    	;abs 0xc752
    c692:	2a 3c       	jmp	$+86     	;abs 0xc6e8
    c694:	3d 90 00 84 	cmp	#-31744,r13	;#0x8400
    c698:	21 24       	jz	$+68     	;abs 0xc6dc
    c69a:	3d 90 01 84 	cmp	#-31743,r13	;#0x8401
    c69e:	07 2c       	jc	$+16     	;abs 0xc6ae
    c6a0:	3d 90 80 25 	cmp	#9600,	r13	;#0x2580
    c6a4:	38 24       	jz	$+114    	;abs 0xc716
    c6a6:	3d 90 00 4b 	cmp	#19200,	r13	;#0x4b00
    c6aa:	35 20       	jnz	$+108    	;abs 0xc716
    c6ac:	0a 3c       	jmp	$+22     	;abs 0xc6c2
    c6ae:	3d 90 00 c2 	cmp	#-15872,r13	;#0xc200
    c6b2:	42 24       	jz	$+134    	;abs 0xc738
    c6b4:	3d 90 00 e1 	cmp	#-7936,	r13	;#0xe100
    c6b8:	39 24       	jz	$+116    	;abs 0xc72c
    c6ba:	3d 90 00 96 	cmp	#-27136,r13	;#0x9600
    c6be:	2b 20       	jnz	$+88     	;abs 0xc716
    c6c0:	07 3c       	jmp	$+16     	;abs 0xc6d0
    c6c2:	f2 40 1a 00 	mov.b	#26,	&0x0062	;#0x001a
    c6c6:	62 00 
    c6c8:	f2 40 11 00 	mov.b	#17,	&0x0064	;#0x0011
    c6cc:	64 00 
    c6ce:	5a 3c       	jmp	$+182    	;abs 0xc784
    c6d0:	f2 40 0d 00 	mov.b	#13,	&0x0062	;#0x000d
    c6d4:	62 00 
    c6d6:	d2 43 64 00 	mov.b	#1,	&0x0064	;r3 As==01
    c6da:	54 3c       	jmp	$+170    	;abs 0xc784
    c6dc:	e2 43 62 00 	mov.b	#2,	&0x0062	;r3 As==10
    c6e0:	f2 40 27 00 	mov.b	#39,	&0x0064	;#0x0027
    c6e4:	64 00 
    c6e6:	4e 3c       	jmp	$+158    	;abs 0xc784
    c6e8:	3d 90 00 84 	cmp	#-31744,r13	;#0x8400
    c6ec:	25 24       	jz	$+76     	;abs 0xc738
    c6ee:	3d 90 01 84 	cmp	#-31743,r13	;#0x8401
    c6f2:	07 2c       	jc	$+16     	;abs 0xc702
    c6f4:	3d 90 80 25 	cmp	#9600,	r13	;#0x2580
    c6f8:	25 24       	jz	$+76     	;abs 0xc744
    c6fa:	3d 90 00 4b 	cmp	#19200,	r13	;#0x4b00
    c6fe:	22 20       	jnz	$+70     	;abs 0xc744
    c700:	0a 3c       	jmp	$+22     	;abs 0xc716
    c702:	3d 90 00 c2 	cmp	#-15872,r13	;#0xc200
    c706:	12 24       	jz	$+38     	;abs 0xc72c
    c708:	3d 90 00 e1 	cmp	#-7936,	r13	;#0xe100
    c70c:	08 24       	jz	$+18     	;abs 0xc71e
    c70e:	3d 90 00 96 	cmp	#-27136,r13	;#0x9600
    c712:	18 20       	jnz	$+50     	;abs 0xc744
    c714:	d6 3f       	jmp	$-82     	;abs 0xc6c2
    c716:	f2 40 34 00 	mov.b	#52,	&0x0062	;#0x0034
    c71a:	62 00 
    c71c:	d5 3f       	jmp	$-84     	;abs 0xc6c8
    c71e:	f2 40 11 00 	mov.b	#17,	&0x0062	;#0x0011
    c722:	62 00 
    c724:	f2 40 61 00 	mov.b	#97,	&0x0064	;#0x0061
    c728:	64 00 
    c72a:	2c 3c       	jmp	$+90     	;abs 0xc784
    c72c:	f2 42 62 00 	mov.b	#8,	&0x0062	;r2 As==11
    c730:	f2 40 b1 ff 	mov.b	#-79,	&0x0064	;#0xffb1
    c734:	64 00 
    c736:	26 3c       	jmp	$+78     	;abs 0xc784
    c738:	e2 42 62 00 	mov.b	#4,	&0x0062	;r2 As==10
    c73c:	f2 40 3b 00 	mov.b	#59,	&0x0064	;#0x003b
    c740:	64 00 
    c742:	20 3c       	jmp	$+66     	;abs 0xc784
    c744:	f2 40 68 00 	mov.b	#104,	&0x0062	;#0x0068
    c748:	62 00 
    c74a:	f2 40 31 00 	mov.b	#49,	&0x0064	;#0x0031
    c74e:	64 00 
    c750:	19 3c       	jmp	$+52     	;abs 0xc784
    c752:	3d 90 00 4b 	cmp	#19200,	r13	;#0x4b00
    c756:	0a 24       	jz	$+22     	;abs 0xc76c
    c758:	3d 90 00 e1 	cmp	#-7936,	r13	;#0xe100
    c75c:	0e 24       	jz	$+30     	;abs 0xc77a
    c75e:	f2 40 06 00 	mov.b	#6,	&0x0062	;#0x0006
    c762:	62 00 
    c764:	f2 40 81 ff 	mov.b	#-127,	&0x0064	;#0xff81
    c768:	64 00 
    c76a:	0c 3c       	jmp	$+26     	;abs 0xc784
    c76c:	f2 40 03 00 	mov.b	#3,	&0x0062	;#0x0003
    c770:	62 00 
    c772:	f2 40 41 00 	mov.b	#65,	&0x0064	;#0x0041
    c776:	64 00 
    c778:	05 3c       	jmp	$+12     	;abs 0xc784
    c77a:	d2 43 62 00 	mov.b	#1,	&0x0062	;r3 As==01
    c77e:	f2 40 0f 00 	mov.b	#15,	&0x0064	;#0x000f
    c782:	64 00 
    c784:	c2 43 63 00 	mov.b	#0,	&0x0063	;r3 As==00
    c788:	f2 f0 fe ff 	and.b	#-2,	&0x0061	;#0xfffe
    c78c:	61 00 
    c78e:	30 41       	ret			

0000c790 <serial_init>:
    c790:	0d 4f       	mov	r15,	r13	
    c792:	3e 40 40 42 	mov	#16960,	r14	;#0x4240
    c796:	3f 40 0f 00 	mov	#15,	r15	;#0x000f
    c79a:	b0 12 66 c6 	call	#0xc666	
    c79e:	30 41       	ret			

0000c7a0 <serial_send>:
    c7a0:	c2 4f 67 00 	mov.b	r15,	&0x0067	
    c7a4:	30 41       	ret			

0000c7a6 <serial_send_blocking>:
    c7a6:	5e 42 03 00 	mov.b	&0x0003,r14	
    c7aa:	2e f3       	and	#2,	r14	;r3 As==10
    c7ac:	fc 27       	jz	$-6      	;abs 0xc7a6
    c7ae:	c2 4f 67 00 	mov.b	r15,	&0x0067	
    c7b2:	30 41       	ret			

0000c7b4 <serial_recv>:
    c7b4:	5f 42 66 00 	mov.b	&0x0066,r15	
    c7b8:	30 41       	ret			

0000c7ba <serial_recv_blocking>:
    c7ba:	5f 42 03 00 	mov.b	&0x0003,r15	
    c7be:	1f f3       	and	#1,	r15	;r3 As==01
    c7c0:	fc 27       	jz	$-6      	;abs 0xc7ba
    c7c2:	5f 42 66 00 	mov.b	&0x0066,r15	
    c7c6:	30 41       	ret			

0000c7c8 <__divhi3>:
    c7c8:	0d 43       	clr	r13		
    c7ca:	0f 93       	tst	r15		
    c7cc:	04 34       	jge	$+10     	;abs 0xc7d6
    c7ce:	3d 40 03 00 	mov	#3,	r13	;#0x0003
    c7d2:	3f e3       	inv	r15		
    c7d4:	1f 53       	inc	r15		
    c7d6:	0e 93       	tst	r14		
    c7d8:	03 34       	jge	$+8      	;abs 0xc7e0
    c7da:	5d e3       	xor.b	#1,	r13	;r3 As==01
    c7dc:	3e e3       	inv	r14		
    c7de:	1e 53       	inc	r14		
    c7e0:	0d 12       	push	r13		
    c7e2:	b0 12 02 c8 	call	#0xc802	
    c7e6:	3d 41       	pop	r13		
    c7e8:	6d b3       	bit.b	#2,	r13	;r3 As==10
    c7ea:	02 24       	jz	$+6      	;abs 0xc7f0
    c7ec:	3e e3       	inv	r14		
    c7ee:	1e 53       	inc	r14		
    c7f0:	5d b3       	bit.b	#1,	r13	;r3 As==01
    c7f2:	02 24       	jz	$+6      	;abs 0xc7f8
    c7f4:	3f e3       	inv	r15		
    c7f6:	1f 53       	inc	r15		
    c7f8:	30 41       	ret			

0000c7fa <__modhi3>:
    c7fa:	b0 12 c8 c7 	call	#0xc7c8	
    c7fe:	0f 4e       	mov	r14,	r15	
    c800:	30 41       	ret			

0000c802 <__udivhi3>:
    c802:	7c 40 10 00 	mov.b	#16,	r12	;#0x0010
    c806:	0d 4e       	mov	r14,	r13	
    c808:	0e 43       	clr	r14		
    c80a:	0f 5f       	rla	r15		
    c80c:	0e 6e       	rlc	r14		
    c80e:	0e 9d       	cmp	r13,	r14	
    c810:	02 28       	jnc	$+6      	;abs 0xc816
    c812:	0e 8d       	sub	r13,	r14	
    c814:	1f d3       	bis	#1,	r15	;r3 As==01
    c816:	1c 83       	dec	r12		
    c818:	f8 23       	jnz	$-14     	;abs 0xc80a
    c81a:	30 41       	ret			

0000c81c <__umodhi3>:
    c81c:	b0 12 02 c8 	call	#0xc802	
    c820:	0f 4e       	mov	r14,	r15	
    c822:	30 41       	ret			

0000c824 <strchr>:
    c824:	6d 4f       	mov.b	@r15,	r13	
    c826:	4d 9e       	cmp.b	r14,	r13	
    c828:	05 24       	jz	$+12     	;abs 0xc834
    c82a:	4d 93       	tst.b	r13		
    c82c:	02 24       	jz	$+6      	;abs 0xc832
    c82e:	1f 53       	inc	r15		
    c830:	f9 3f       	jmp	$-12     	;abs 0xc824
    c832:	0f 43       	clr	r15		
    c834:	30 41       	ret			

0000c836 <memset>:
    c836:	0b 12       	push	r11		
    c838:	0a 12       	push	r10		
    c83a:	09 12       	push	r9		
    c83c:	08 12       	push	r8		
    c83e:	3d 90 06 00 	cmp	#6,	r13	;#0x0006
    c842:	09 2c       	jc	$+20     	;abs 0xc856
    c844:	0c 4f       	mov	r15,	r12	
    c846:	04 3c       	jmp	$+10     	;abs 0xc850
    c848:	cc 4e 00 00 	mov.b	r14,	0(r12)	;0x0000(r12)
    c84c:	1c 53       	inc	r12		
    c84e:	3d 53       	add	#-1,	r13	;r3 As==11
    c850:	0d 93       	tst	r13		
    c852:	fa 23       	jnz	$-10     	;abs 0xc848
    c854:	20 3c       	jmp	$+66     	;abs 0xc896
    c856:	4e 4e       	mov.b	r14,	r14	
    c858:	4b 4e       	mov.b	r14,	r11	
    c85a:	0b 93       	tst	r11		
    c85c:	03 24       	jz	$+8      	;abs 0xc864
    c85e:	0c 4b       	mov	r11,	r12	
    c860:	8c 10       	swpb	r12		
    c862:	0b dc       	bis	r12,	r11	
    c864:	1f b3       	bit	#1,	r15	;r3 As==01
    c866:	06 24       	jz	$+14     	;abs 0xc874
    c868:	3d 53       	add	#-1,	r13	;r3 As==11
    c86a:	cf 4e 00 00 	mov.b	r14,	0(r15)	;0x0000(r15)
    c86e:	09 4f       	mov	r15,	r9	
    c870:	19 53       	inc	r9		
    c872:	01 3c       	jmp	$+4      	;abs 0xc876
    c874:	09 4f       	mov	r15,	r9	
    c876:	0c 4d       	mov	r13,	r12	
    c878:	12 c3       	clrc			
    c87a:	0c 10       	rrc	r12		
    c87c:	0a 49       	mov	r9,	r10	
    c87e:	08 4c       	mov	r12,	r8	
    c880:	8a 4b 00 00 	mov	r11,	0(r10)	;0x0000(r10)
    c884:	2a 53       	incd	r10		
    c886:	38 53       	add	#-1,	r8	;r3 As==11
    c888:	fb 23       	jnz	$-8      	;abs 0xc880
    c88a:	0c 5c       	rla	r12		
    c88c:	0c 59       	add	r9,	r12	
    c88e:	1d f3       	and	#1,	r13	;r3 As==01
    c890:	02 24       	jz	$+6      	;abs 0xc896
    c892:	cc 4e 00 00 	mov.b	r14,	0(r12)	;0x0000(r12)
    c896:	38 41       	pop	r8		
    c898:	39 41       	pop	r9		
    c89a:	3a 41       	pop	r10		
    c89c:	3b 41       	pop	r11		
    c89e:	30 41       	ret			

0000c8a0 <strsep>:
    c8a0:	0b 12       	push	r11		
    c8a2:	0a 12       	push	r10		
    c8a4:	09 12       	push	r9		
    c8a6:	2a 4f       	mov	@r15,	r10	
    c8a8:	0a 93       	tst	r10		
    c8aa:	15 24       	jz	$+44     	;abs 0xc8d6
    c8ac:	0d 4a       	mov	r10,	r13	
    c8ae:	7c 4d       	mov.b	@r13+,	r12	
    c8b0:	8c 11       	sxt	r12		
    c8b2:	09 4e       	mov	r14,	r9	
    c8b4:	7b 49       	mov.b	@r9+,	r11	
    c8b6:	8b 11       	sxt	r11		
    c8b8:	0b 9c       	cmp	r12,	r11	
    c8ba:	0a 20       	jnz	$+22     	;abs 0xc8d0
    c8bc:	0c 93       	tst	r12		
    c8be:	03 24       	jz	$+8      	;abs 0xc8c6
    c8c0:	cd 43 ff ff 	mov.b	#0,	-1(r13)	;r3 As==00, 0xffff(r13)
    c8c4:	01 3c       	jmp	$+4      	;abs 0xc8c8
    c8c6:	0d 43       	clr	r13		
    c8c8:	8f 4d 00 00 	mov	r13,	0(r15)	;0x0000(r15)
    c8cc:	0f 4a       	mov	r10,	r15	
    c8ce:	04 3c       	jmp	$+10     	;abs 0xc8d8
    c8d0:	0b 93       	tst	r11		
    c8d2:	f0 23       	jnz	$-30     	;abs 0xc8b4
    c8d4:	ec 3f       	jmp	$-38     	;abs 0xc8ae
    c8d6:	0f 43       	clr	r15		
    c8d8:	39 41       	pop	r9		
    c8da:	3a 41       	pop	r10		
    c8dc:	3b 41       	pop	r11		
    c8de:	30 41       	ret			

0000c8e0 <atoi>:
    c8e0:	0b 12       	push	r11		
    c8e2:	0e 4f       	mov	r15,	r14	
    c8e4:	01 3c       	jmp	$+4      	;abs 0xc8e8
    c8e6:	1e 53       	inc	r14		
    c8e8:	6f 4e       	mov.b	@r14,	r15	
    c8ea:	7f 90 20 00 	cmp.b	#32,	r15	;#0x0020
    c8ee:	fb 27       	jz	$-8      	;abs 0xc8e6
    c8f0:	7f 90 09 00 	cmp.b	#9,	r15	;#0x0009
    c8f4:	f8 27       	jz	$-14     	;abs 0xc8e6
    c8f6:	7f 90 0a 00 	cmp.b	#10,	r15	;#0x000a
    c8fa:	f5 27       	jz	$-20     	;abs 0xc8e6
    c8fc:	7f 90 0c 00 	cmp.b	#12,	r15	;#0x000c
    c900:	f2 27       	jz	$-26     	;abs 0xc8e6
    c902:	7f 90 0d 00 	cmp.b	#13,	r15	;#0x000d
    c906:	ef 27       	jz	$-32     	;abs 0xc8e6
    c908:	7f 90 0b 00 	cmp.b	#11,	r15	;#0x000b
    c90c:	ec 27       	jz	$-38     	;abs 0xc8e6
    c90e:	7f 90 2d 00 	cmp.b	#45,	r15	;#0x002d
    c912:	03 20       	jnz	$+8      	;abs 0xc91a
    c914:	1e 53       	inc	r14		
    c916:	1b 43       	mov	#1,	r11	;r3 As==01
    c918:	05 3c       	jmp	$+12     	;abs 0xc924
    c91a:	7f 90 2b 00 	cmp.b	#43,	r15	;#0x002b
    c91e:	01 20       	jnz	$+4      	;abs 0xc922
    c920:	1e 53       	inc	r14		
    c922:	0b 43       	clr	r11		
    c924:	6f 4e       	mov.b	@r14,	r15	
    c926:	8f 11       	sxt	r15		
    c928:	3f 50 d0 ff 	add	#-48,	r15	;#0xffd0
    c92c:	3f 90 0a 00 	cmp	#10,	r15	;#0x000a
    c930:	19 2c       	jc	$+52     	;abs 0xc964
    c932:	0d 43       	clr	r13		
    c934:	7c 4e       	mov.b	@r14+,	r12	
    c936:	8c 11       	sxt	r12		
    c938:	0f 4c       	mov	r12,	r15	
    c93a:	3f 50 d0 ff 	add	#-48,	r15	;#0xffd0
    c93e:	0f 5d       	add	r13,	r15	
    c940:	6d 4e       	mov.b	@r14,	r13	
    c942:	8d 11       	sxt	r13		
    c944:	3d 50 d0 ff 	add	#-48,	r13	;#0xffd0
    c948:	3d 90 0a 00 	cmp	#10,	r13	;#0x000a
    c94c:	06 2c       	jc	$+14     	;abs 0xc95a
    c94e:	0f 5f       	rla	r15		
    c950:	0d 4f       	mov	r15,	r13	
    c952:	0d 5d       	rla	r13		
    c954:	0d 5d       	rla	r13		
    c956:	0d 5f       	add	r15,	r13	
    c958:	ed 3f       	jmp	$-36     	;abs 0xc934
    c95a:	0b 93       	tst	r11		
    c95c:	04 24       	jz	$+10     	;abs 0xc966
    c95e:	3f e3       	inv	r15		
    c960:	1f 53       	inc	r15		
    c962:	01 3c       	jmp	$+4      	;abs 0xc966
    c964:	0f 43       	clr	r15		
    c966:	3b 41       	pop	r11		
    c968:	30 41       	ret			

0000c96a <_unexpected_>:
    c96a:	00 13       	reti			

Disassembly of section .rodata:

0000c96c <__bss_start+0xc76c>:
    c96c:	24 20       	jnz	$+74     	;abs 0xc9b6
    c96e:	00 0a       	.word	0x0a00;	????	
    c970:	0d 00       	.word	0x000d;	????	
    c972:	2b 2d       	jc	$+600    	;abs 0xcbca
    c974:	2a 2f       	jc	$-426    	;abs 0xc7ca
    c976:	5e 25       	jz	$+702    	;abs 0xcc34
    c978:	3f 00       	.word	0x003f;	????	
    c97a:	21 20       	jnz	$+68     	;abs 0xc9be
    c97c:	4e 4f       	mov.b	r15,	r14	
    c97e:	54 20       	jnz	$+170    	;abs 0xca28
    c980:	45 4e       	mov.b	r14,	r5	
    c982:	4f 55       	add.b	r5,	r15	
    c984:	47 48       	mov.b	r8,	r7	
    c986:	20 49       	br	@r9		
    c988:	54 45 4d 53 	mov.b	21325(r5),r4	;0x534d(r5)
    c98c:	20 4f       	br	@r15		
    c98e:	4e 20       	jnz	$+158    	;abs 0xca2c
    c990:	53 54       	.word	0x5453;	????	Illegal as 2-op instr
    c992:	41 43       	clr.b	r1		
    c994:	4b 0a       	.word	0x0a4b;	????	
    c996:	0d 00       	.word	0x000d;	????	
    c998:	21 20       	jnz	$+68     	;abs 0xc9dc
    c99a:	55 4e 4b 4e 	mov.b	20043(r14),r5	;0x4e4b(r14)
    c99e:	4f 57       	add.b	r7,	r15	
    c9a0:	4e 20       	jnz	$+158    	;abs 0xca3e
    c9a2:	4f 50       	add.b	r0,	r15	
    c9a4:	45 52       	add.b	r2,	r5	
    c9a6:	41 54       	add.b	r4,	r1	
    c9a8:	49 4f       	mov.b	r15,	r9	
    c9aa:	4e 0a       	.word	0x0a4e;	????	
    c9ac:	0d 00       	.word	0x000d;	????	
    c9ae:	21 20       	jnz	$+68     	;abs 0xc9f2
    c9b0:	53 54       	.word	0x5453;	????	Illegal as 2-op instr
    c9b2:	41 43       	clr.b	r1		
    c9b4:	4b 20       	jnz	$+152    	;abs 0xca4c
    c9b6:	46 55       	add.b	r5,	r6	
    c9b8:	4c 4c       	mov.b	r12,	r12	
    c9ba:	0a 0d       	.word	0x0d0a;	????	
    c9bc:	00 20       	jnz	$+2      	;abs 0xc9be
    c9be:	00 25       	jz	$+514    	;abs 0xcbc0
    c9c0:	69 3a       	jl	$-812    	;abs 0xc694
    c9c2:	20 25       	jz	$+578    	;abs 0xcc04
    c9c4:	69 0a       	.word	0x0a69;	????	
    c9c6:	0d 00       	.word	0x000d;	????	
    c9c8:	25 69       	addc	@r9,	r5	
    c9ca:	3a 20       	jnz	$+118    	;abs 0xca40
    c9cc:	2d 0a       	.word	0x0a2d;	????	
    c9ce:	0d 00       	.word	0x000d;	????	
    c9d0:	52 c2 74 c2 	bic.b	&0xc274,r2	
    c9d4:	74 c2       	bic.b	#8,	r4	;r2 As==11
    c9d6:	74 c2       	bic.b	#8,	r4	;r2 As==11
    c9d8:	74 c2       	bic.b	#8,	r4	;r2 As==11
    c9da:	0e c2       	bic	r2,	r14	
    c9dc:	a8 c1 74 c2 	bic	@r1,	-15756(r8);0xc274(r8)
    c9e0:	ca c1 74 c2 	bic.b	r1,	-15756(r10);0xc274(r10)
    c9e4:	ec c1 74 c2 	bic.b	@r1,	-15756(r12);0xc274(r12)
    c9e8:	74 c2       	bic.b	#8,	r4	;r2 As==11
    c9ea:	74 c2       	bic.b	#8,	r4	;r2 As==11
    c9ec:	74 c2       	bic.b	#8,	r4	;r2 As==11
    c9ee:	74 c2       	bic.b	#8,	r4	;r2 As==11
    c9f0:	74 c2       	bic.b	#8,	r4	;r2 As==11
    c9f2:	74 c2       	bic.b	#8,	r4	;r2 As==11
    c9f4:	74 c2       	bic.b	#8,	r4	;r2 As==11
    c9f6:	74 c2       	bic.b	#8,	r4	;r2 As==11
    c9f8:	74 c2       	bic.b	#8,	r4	;r2 As==11
    c9fa:	74 c2       	bic.b	#8,	r4	;r2 As==11
    c9fc:	74 c2       	bic.b	#8,	r4	;r2 As==11
    c9fe:	74 c2       	bic.b	#8,	r4	;r2 As==11
    ca00:	74 c2       	bic.b	#8,	r4	;r2 As==11
    ca02:	74 c2       	bic.b	#8,	r4	;r2 As==11
    ca04:	7e c2       	bic.b	#8,	r14	;r2 As==11
    ca06:	74 c2       	bic.b	#8,	r4	;r2 As==11
    ca08:	74 c2       	bic.b	#8,	r4	;r2 As==11
    ca0a:	74 c2       	bic.b	#8,	r4	;r2 As==11
    ca0c:	74 c2       	bic.b	#8,	r4	;r2 As==11
    ca0e:	74 c2       	bic.b	#8,	r4	;r2 As==11
    ca10:	74 c2       	bic.b	#8,	r4	;r2 As==11
    ca12:	74 c2       	bic.b	#8,	r4	;r2 As==11
    ca14:	74 c2       	bic.b	#8,	r4	;r2 As==11
    ca16:	74 c2       	bic.b	#8,	r4	;r2 As==11
    ca18:	74 c2       	bic.b	#8,	r4	;r2 As==11
    ca1a:	74 c2       	bic.b	#8,	r4	;r2 As==11
    ca1c:	74 c2       	bic.b	#8,	r4	;r2 As==11
    ca1e:	74 c2       	bic.b	#8,	r4	;r2 As==11
    ca20:	74 c2       	bic.b	#8,	r4	;r2 As==11
    ca22:	74 c2       	bic.b	#8,	r4	;r2 As==11
    ca24:	74 c2       	bic.b	#8,	r4	;r2 As==11
    ca26:	74 c2       	bic.b	#8,	r4	;r2 As==11
    ca28:	74 c2       	bic.b	#8,	r4	;r2 As==11
    ca2a:	74 c2       	bic.b	#8,	r4	;r2 As==11
    ca2c:	74 c2       	bic.b	#8,	r4	;r2 As==11
    ca2e:	74 c2       	bic.b	#8,	r4	;r2 As==11
    ca30:	74 c2       	bic.b	#8,	r4	;r2 As==11
    ca32:	74 c2       	bic.b	#8,	r4	;r2 As==11
    ca34:	74 c2       	bic.b	#8,	r4	;r2 As==11
    ca36:	74 c2       	bic.b	#8,	r4	;r2 As==11
    ca38:	74 c2       	bic.b	#8,	r4	;r2 As==11
    ca3a:	74 c2       	bic.b	#8,	r4	;r2 As==11
    ca3c:	74 c2       	bic.b	#8,	r4	;r2 As==11
    ca3e:	74 c2       	bic.b	#8,	r4	;r2 As==11
    ca40:	74 c2       	bic.b	#8,	r4	;r2 As==11
    ca42:	30 c2       	bic	#8,	r0	;r2 As==11

0000ca44 <_dv>:
    ca44:	00 ca       	bic	r10,	r0	
    ca46:	9a 3b       	jl	$-202    	;abs 0xc97c
    ca48:	00 e1       	xor	r1,	r0	
    ca4a:	f5 05       	.word	0x05f5;	????	
    ca4c:	80 96 98 00 	cmp	r6,	152(r0)	;PC rel. 0xcae6
    ca50:	40 42       	br	r2		
    ca52:	0f 00       	.word	0x000f;	????	
    ca54:	a0 86 01 00 	sub	@r6,	1(r0)	;PC rel. 0xca57
    ca58:	10 27       	jz	$-478    	;abs 0xc87a
    ca5a:	00 00       	.word	0x0000;	????	
    ca5c:	e8 03       	.word	0x03e8;	????	
    ca5e:	00 00       	.word	0x0000;	????	
    ca60:	64 00       	.word	0x0064;	????	
    ca62:	00 00       	.word	0x0000;	????	
    ca64:	0a 00       	.word	0x000a;	????	
    ca66:	00 00       	.word	0x0000;	????	
    ca68:	01 00       	.word	0x0001;	????	
	...

0000ca6c <hex.1308>:
    ca6c:	30 31       	jn	$+610    	;abs 0xccce
    ca6e:	32 33       	jn	$-410    	;abs 0xc8d4
    ca70:	34 35       	jge	$+618    	;abs 0xccda
    ca72:	36 37       	jge	$-402    	;abs 0xc8e0
    ca74:	38 39       	jl	$+626    	;abs 0xcce6
    ca76:	41 42       	mov.b	r2,	r1	
    ca78:	43 44       	.word	0x4443;	????	Illegal as 2-op instr
    ca7a:	45 46       	mov.b	r6,	r5	

Disassembly of section .noinit:

00000200 <__wdt_clear_value>:
	...

Disassembly of section .vectors:

0000ffe0 <__ivtbl_16>:
    ffe0:	2a c3       	bic	#2,	r10	;r3 As==10
    ffe2:	2a c3       	bic	#2,	r10	;r3 As==10
    ffe4:	2a c3       	bic	#2,	r10	;r3 As==10
    ffe6:	2a c3       	bic	#2,	r10	;r3 As==10
    ffe8:	2a c3       	bic	#2,	r10	;r3 As==10
    ffea:	2a c3       	bic	#2,	r10	;r3 As==10
    ffec:	2a c3       	bic	#2,	r10	;r3 As==10
    ffee:	2a c3       	bic	#2,	r10	;r3 As==10
    fff0:	2a c3       	bic	#2,	r10	;r3 As==10
    fff2:	2a c3       	bic	#2,	r10	;r3 As==10
    fff4:	2a c3       	bic	#2,	r10	;r3 As==10
    fff6:	2a c3       	bic	#2,	r10	;r3 As==10
    fff8:	2a c3       	bic	#2,	r10	;r3 As==10
    fffa:	2a c3       	bic	#2,	r10	;r3 As==10
    fffc:	2a c3       	bic	#2,	r10	;r3 As==10
    fffe:	00 c0       	bic	r0,	r0	

Disassembly of section .debug_aranges:

00000000 <.debug_aranges>:
   0:	10 00       	.word	0x0010;	????	
   2:	00 00       	.word	0x0000;	????	
   4:	02 00       	.word	0x0002;	????	
   6:	00 00       	.word	0x0000;	????	
   8:	00 00       	.word	0x0000;	????	
   a:	02 00       	.word	0x0002;	????	
   c:	3e c0 e6 02 	bic	#742,	r14	;#0x02e6
  10:	00 00       	.word	0x0000;	????	
  12:	00 00       	.word	0x0000;	????	
  14:	10 00       	.word	0x0010;	????	
  16:	00 00       	.word	0x0000;	????	
  18:	02 00       	.word	0x0002;	????	
  1a:	ab 01       	.word	0x01ab;	????	
  1c:	00 00       	.word	0x0000;	????	
  1e:	02 00       	.word	0x0002;	????	
  20:	2e c3       	bic	#2,	r14	;r3 As==10
  22:	04 00       	.word	0x0004;	????	
  24:	00 00       	.word	0x0000;	????	
  26:	00 00       	.word	0x0000;	????	
  28:	10 00       	.word	0x0010;	????	
  2a:	00 00       	.word	0x0000;	????	
  2c:	02 00       	.word	0x0002;	????	
  2e:	ed 01       	.word	0x01ed;	????	
  30:	00 00       	.word	0x0000;	????	
  32:	02 00       	.word	0x0002;	????	
  34:	32 c3       	bic	#-1,	r2	;r3 As==11
  36:	3a 00       	.word	0x003a;	????	
  38:	00 00       	.word	0x0000;	????	
  3a:	00 00       	.word	0x0000;	????	
  3c:	10 00       	.word	0x0010;	????	
  3e:	00 00       	.word	0x0000;	????	
  40:	02 00       	.word	0x0002;	????	
  42:	30 02       	.word	0x0230;	????	
  44:	00 00       	.word	0x0000;	????	
  46:	02 00       	.word	0x0002;	????	
  48:	6c c3       	bic.b	#2,	r12	;r3 As==10
  4a:	32 00       	.word	0x0032;	????	
  4c:	00 00       	.word	0x0000;	????	
  4e:	00 00       	.word	0x0000;	????	
  50:	10 00       	.word	0x0010;	????	
  52:	00 00       	.word	0x0000;	????	
  54:	02 00       	.word	0x0002;	????	
  56:	6d 02       	.word	0x026d;	????	
  58:	00 00       	.word	0x0000;	????	
  5a:	02 00       	.word	0x0002;	????	
  5c:	9e c3 22 00 	bic	#1,	34(r14)	;r3 As==01, 0x0022(r14)
  60:	00 00       	.word	0x0000;	????	
  62:	00 00       	.word	0x0000;	????	
  64:	10 00       	.word	0x0010;	????	
  66:	00 00       	.word	0x0000;	????	
  68:	02 00       	.word	0x0002;	????	
  6a:	af 02       	.word	0x02af;	????	
  6c:	00 00       	.word	0x0000;	????	
  6e:	02 00       	.word	0x0002;	????	
  70:	c0 c3 2c 00 	bic.b	#0,	44(r0)	;r3 As==00, PC rel. 0x009e
  74:	00 00       	.word	0x0000;	????	
  76:	00 00       	.word	0x0000;	????	
  78:	10 00       	.word	0x0010;	????	
  7a:	00 00       	.word	0x0000;	????	
  7c:	02 00       	.word	0x0002;	????	
  7e:	f2 02       	.word	0x02f2;	????	
  80:	00 00       	.word	0x0000;	????	
  82:	02 00       	.word	0x0002;	????	
  84:	ec c3 04 00 	bic.b	#2,	4(r12)	;r3 As==10, 0x0004(r12)
  88:	00 00       	.word	0x0000;	????	
  8a:	00 00       	.word	0x0000;	????	
  8c:	10 00       	.word	0x0010;	????	
  8e:	00 00       	.word	0x0000;	????	
  90:	02 00       	.word	0x0002;	????	
  92:	34 03       	.word	0x0334;	????	
  94:	00 00       	.word	0x0000;	????	
  96:	02 00       	.word	0x0002;	????	
  98:	f0 c3 6a 02 	bic.b	#-1,	618(r0)	;r3 As==11, PC rel. 0x0304
  9c:	00 00       	.word	0x0000;	????	
  9e:	00 00       	.word	0x0000;	????	
  a0:	10 00       	.word	0x0010;	????	
  a2:	00 00       	.word	0x0000;	????	
  a4:	02 00       	.word	0x0002;	????	
  a6:	88 05       	.word	0x0588;	????	
  a8:	00 00       	.word	0x0000;	????	
  aa:	02 00       	.word	0x0002;	????	
  ac:	5a c6 0c 00 	bic.b	12(r6),	r10	;0x000c(r6)
  b0:	00 00       	.word	0x0000;	????	
  b2:	00 00       	.word	0x0000;	????	
  b4:	10 00       	.word	0x0010;	????	
  b6:	00 00       	.word	0x0000;	????	
  b8:	02 00       	.word	0x0002;	????	
  ba:	e6 05       	.word	0x05e6;	????	
  bc:	00 00       	.word	0x0000;	????	
  be:	02 00       	.word	0x0002;	????	
  c0:	66 c6       	bic.b	@r6,	r6	
  c2:	62 01       	.word	0x0162;	????	
  c4:	00 00       	.word	0x0000;	????	
  c6:	00 00       	.word	0x0000;	????	
  c8:	10 00       	.word	0x0010;	????	
  ca:	00 00       	.word	0x0000;	????	
  cc:	02 00       	.word	0x0002;	????	
  ce:	ad 07       	.word	0x07ad;	????	
  d0:	00 00       	.word	0x0000;	????	
  d2:	02 00       	.word	0x0002;	????	
  d4:	c8 c7 3a 00 	bic.b	r7,	58(r8)	;0x003a(r8)
  d8:	00 00       	.word	0x0000;	????	
  da:	00 00       	.word	0x0000;	????	
  dc:	10 00       	.word	0x0010;	????	
  de:	00 00       	.word	0x0000;	????	
  e0:	02 00       	.word	0x0002;	????	
  e2:	37 08       	.word	0x0837;	????	
  e4:	00 00       	.word	0x0000;	????	
  e6:	02 00       	.word	0x0002;	????	
  e8:	02 c8       	bic	r8,	r2	
  ea:	22 00       	.word	0x0022;	????	
  ec:	00 00       	.word	0x0000;	????	
  ee:	00 00       	.word	0x0000;	????	
  f0:	10 00       	.word	0x0010;	????	
  f2:	00 00       	.word	0x0000;	????	
  f4:	02 00       	.word	0x0002;	????	
  f6:	c1 08       	.word	0x08c1;	????	
  f8:	00 00       	.word	0x0000;	????	
  fa:	02 00       	.word	0x0002;	????	
  fc:	24 c8       	bic	@r8,	r4	
  fe:	12 00       	.word	0x0012;	????	
 100:	00 00       	.word	0x0000;	????	
 102:	00 00       	.word	0x0000;	????	
 104:	10 00       	.word	0x0010;	????	
 106:	00 00       	.word	0x0000;	????	
 108:	02 00       	.word	0x0002;	????	
 10a:	68 09       	.word	0x0968;	????	
 10c:	00 00       	.word	0x0000;	????	
 10e:	02 00       	.word	0x0002;	????	
 110:	36 c8       	bic	@r8+,	r6	
 112:	6a 00       	.word	0x006a;	????	
 114:	00 00       	.word	0x0000;	????	
 116:	00 00       	.word	0x0000;	????	
 118:	10 00       	.word	0x0010;	????	
 11a:	00 00       	.word	0x0000;	????	
 11c:	02 00       	.word	0x0002;	????	
 11e:	66 0a       	.word	0x0a66;	????	
 120:	00 00       	.word	0x0000;	????	
 122:	02 00       	.word	0x0002;	????	
 124:	a0 c8 40 00 	bic	@r8,	64(r0)	;PC rel. 0x0166
 128:	00 00       	.word	0x0000;	????	
 12a:	00 00       	.word	0x0000;	????	
 12c:	10 00       	.word	0x0010;	????	
 12e:	00 00       	.word	0x0000;	????	
 130:	02 00       	.word	0x0002;	????	
 132:	5f 0b       	.word	0x0b5f;	????	
 134:	00 00       	.word	0x0000;	????	
 136:	02 00       	.word	0x0002;	????	
 138:	e0 c8 8a 00 	bic.b	@r8,	138(r0)	;PC rel. 0x01c4
 13c:	00 00       	.word	0x0000;	????	
 13e:	00 00       	.word	0x0000;	????	
 140:	10 00       	.word	0x0010;	????	
 142:	00 00       	.word	0x0000;	????	
 144:	02 00       	.word	0x0002;	????	
 146:	13 0c       	.word	0x0c13;	????	
 148:	00 00       	.word	0x0000;	????	
 14a:	02 00       	.word	0x0002;	????	
 14c:	00 c0       	bic	r0,	r0	
 14e:	0c 00       	.word	0x000c;	????	
 150:	00 00       	.word	0x0000;	????	
 152:	00 00       	.word	0x0000;	????	
 154:	10 00       	.word	0x0010;	????	
 156:	00 00       	.word	0x0000;	????	
 158:	02 00       	.word	0x0002;	????	
 15a:	84 0c       	.word	0x0c84;	????	
 15c:	00 00       	.word	0x0000;	????	
 15e:	02 00       	.word	0x0002;	????	
 160:	0c c0       	bic	r0,	r12	
 162:	04 00       	.word	0x0004;	????	
 164:	00 00       	.word	0x0000;	????	
 166:	00 00       	.word	0x0000;	????	
 168:	10 00       	.word	0x0010;	????	
 16a:	00 00       	.word	0x0000;	????	
 16c:	02 00       	.word	0x0002;	????	
 16e:	f5 0c       	.word	0x0cf5;	????	
 170:	00 00       	.word	0x0000;	????	
 172:	02 00       	.word	0x0002;	????	
 174:	10 c0 18 00 	bic	24(r0),	r0	;PC rel. 0x018e
 178:	00 00       	.word	0x0000;	????	
 17a:	00 00       	.word	0x0000;	????	
 17c:	10 00       	.word	0x0010;	????	
 17e:	00 00       	.word	0x0000;	????	
 180:	02 00       	.word	0x0002;	????	
 182:	66 0d       	.word	0x0d66;	????	
 184:	00 00       	.word	0x0000;	????	
 186:	02 00       	.word	0x0002;	????	
 188:	28 c0       	bic	@r0,	r8	
 18a:	16 00       	.word	0x0016;	????	
 18c:	00 00       	.word	0x0000;	????	
 18e:	00 00       	.word	0x0000;	????	
 190:	10 00       	.word	0x0010;	????	
 192:	00 00       	.word	0x0000;	????	
 194:	02 00       	.word	0x0002;	????	
 196:	d7 0d       	.word	0x0dd7;	????	
 198:	00 00       	.word	0x0000;	????	
 19a:	02 00       	.word	0x0002;	????	
 19c:	24 c3       	bic	#2,	r4	;r3 As==10
 19e:	06 00       	.word	0x0006;	????	
 1a0:	00 00       	.word	0x0000;	????	
 1a2:	00 00       	.word	0x0000;	????	
 1a4:	10 00       	.word	0x0010;	????	
 1a6:	00 00       	.word	0x0000;	????	
 1a8:	02 00       	.word	0x0002;	????	
 1aa:	48 0e       	.word	0x0e48;	????	
 1ac:	00 00       	.word	0x0000;	????	
 1ae:	02 00       	.word	0x0002;	????	
 1b0:	6a c9       	bic.b	@r9,	r10	
 1b2:	02 00       	.word	0x0002;	????	
 1b4:	00 00       	.word	0x0000;	????	
	...

Disassembly of section .debug_info:

00000000 <.debug_info>:
   0:	a7 01       	.word	0x01a7;	????	
   2:	00 00       	.word	0x0000;	????	
   4:	02 00       	.word	0x0002;	????	
   6:	00 00       	.word	0x0000;	????	
   8:	00 00       	.word	0x0000;	????	
   a:	02 01       	.word	0x0102;	????	
   c:	43 00       	.word	0x0043;	????	
   e:	00 00       	.word	0x0000;	????	
  10:	01 9b       	cmp	r11,	r1	
  12:	00 00       	.word	0x0000;	????	
  14:	00 06       	.word	0x0600;	????	
	...
  22:	00 00       	.word	0x0000;	????	
  24:	00 02       	.word	0x0200;	????	
  26:	02 07       	.word	0x0702;	????	
  28:	ab 00       	.word	0x00ab;	????	
  2a:	00 00       	.word	0x0000;	????	
  2c:	02 04       	.word	0x0402;	????	
  2e:	05 28       	jnc	$+12     	;abs 0x3a
  30:	00 00       	.word	0x0000;	????	
  32:	00 03       	.word	0x0300;	????	
  34:	02 05       	.word	0x0502;	????	
  36:	69 6e       	addc.b	@r14,	r9	
  38:	74 00       	.word	0x0074;	????	
  3a:	02 01       	.word	0x0102;	????	
  3c:	06 88       	sub	r8,	r6	
  3e:	00 00       	.word	0x0000;	????	
  40:	00 02       	.word	0x0200;	????	
  42:	08 05       	.word	0x0508;	????	
  44:	23 00       	.word	0x0023;	????	
  46:	00 00       	.word	0x0000;	????	
  48:	02 01       	.word	0x0102;	????	
  4a:	08 86       	sub	r6,	r8	
  4c:	00 00       	.word	0x0000;	????	
  4e:	00 02       	.word	0x0200;	????	
  50:	04 07       	.word	0x0704;	????	
  52:	a6 00       	.word	0x00a6;	????	
  54:	00 00       	.word	0x0000;	????	
  56:	02 08       	.word	0x0802;	????	
  58:	07 a1       	dadd	r1,	r7	
  5a:	00 00       	.word	0x0000;	????	
  5c:	00 02       	.word	0x0200;	????	
  5e:	02 07       	.word	0x0702;	????	
  60:	be 00       	.word	0x00be;	????	
  62:	00 00       	.word	0x0000;	????	
  64:	04 02       	.word	0x0204;	????	
  66:	6a 00       	.word	0x006a;	????	
  68:	00 00       	.word	0x0000;	????	
  6a:	02 01       	.word	0x0102;	????	
  6c:	06 8f       	sub	r15,	r6	
  6e:	00 00       	.word	0x0000;	????	
  70:	00 05       	.word	0x0500;	????	
  72:	01 19       	.word	0x1901;	????	
  74:	00 00       	.word	0x0000;	????	
  76:	00 01       	.word	0x0100;	????	
  78:	03 01       	.word	0x0103;	????	
  7a:	33 00       	.word	0x0033;	????	
  7c:	00 00       	.word	0x0000;	????	
  7e:	3e c0 24 c3 	bic	#-15580,r14	;#0xc324
  82:	00 00       	.word	0x0000;	????	
  84:	00 00       	.word	0x0000;	????	
  86:	21 01       	.word	0x0121;	????	
  88:	00 00       	.word	0x0000;	????	
  8a:	06 b8       	bit	r8,	r6	
  8c:	00 00       	.word	0x0000;	????	
  8e:	00 01       	.word	0x0100;	????	
  90:	0a 21       	jnz	$+534    	;abs 0x2a6
  92:	01 00       	.word	0x0001;	????	
  94:	00 02       	.word	0x0200;	????	
  96:	91 56 06 94 	add	-27642(r6),0(r1)	;0x9406(r6), 0x0000(r1)
  9a:	00 00 
  9c:	00 01       	.word	0x0100;	????	
  9e:	0b 33       	jn	$-488    	;abs 0xfeb6
  a0:	00 00       	.word	0x0000;	????	
  a2:	00 02       	.word	0x0200;	????	
  a4:	91 48 07 74 	mov	29703(r8),8384(r1);0x7407(r8), 0x20c0(r1)
  a8:	c0 20 
  aa:	c3 08       	.word	0x08c3;	????	
  ac:	6a 00       	.word	0x006a;	????	
  ae:	01 0e       	.word	0x0e01;	????	
  b0:	33 00       	.word	0x0033;	????	
  b2:	00 00       	.word	0x0000;	????	
  b4:	02 91       	cmp	r1,	r2	
  b6:	4a 06       	.word	0x064a;	????	
  b8:	1e 00       	.word	0x001e;	????	
  ba:	00 00       	.word	0x0000;	????	
  bc:	01 0f       	.word	0x0f01;	????	
  be:	31 01       	.word	0x0131;	????	
  c0:	00 00       	.word	0x0000;	????	
  c2:	02 91       	cmp	r1,	r2	
  c4:	60 08       	.word	0x0860;	????	
  c6:	63 00       	.word	0x0063;	????	
  c8:	01 12       	push	r1		
  ca:	6a 00       	.word	0x006a;	????	
  cc:	00 00       	.word	0x0000;	????	
  ce:	02 91       	cmp	r1,	r2	
  d0:	4c 06       	.word	0x064c;	????	
  d2:	00 00       	.word	0x0000;	????	
  d4:	00 00       	.word	0x0000;	????	
  d6:	01 21       	jnz	$+516    	;abs 0x2da
  d8:	64 00       	.word	0x0064;	????	
  da:	00 00       	.word	0x0000;	????	
  dc:	02 91       	cmp	r1,	r2	
  de:	54 08       	.word	0x0854;	????	
  e0:	70 00       	.word	0x0070;	????	
  e2:	01 21       	jnz	$+516    	;abs 0x2e6
  e4:	64 00       	.word	0x0064;	????	
  e6:	00 00       	.word	0x0000;	????	
  e8:	02 91       	cmp	r1,	r2	
  ea:	5e 09       	.word	0x095e;	????	
  ec:	4e c1       	bic.b	r1,	r14	
  ee:	80 c2 0d 01 	bic	r2,	269(r0)	;PC rel. 0x01fd
  f2:	00 00       	.word	0x0000;	????	
  f4:	08 61       	addc	r1,	r8	
  f6:	00 01       	.word	0x0100;	????	
  f8:	29 33       	jn	$-428    	;abs 0xff4c
  fa:	00 00       	.word	0x0000;	????	
  fc:	00 02       	.word	0x0200;	????	
  fe:	91 4e 08 62 	mov	25096(r14),256(r1)	;0x6208(r14), 0x0100(r1)
 102:	00 01 
 104:	29 33       	jn	$-428    	;abs 0xff58
 106:	00 00       	.word	0x0000;	????	
 108:	00 02       	.word	0x0200;	????	
 10a:	91 50 00 07 	add	1792(r0),-15662(r1);PC rel. 0x080c, 0xc2d2(r1)
 10e:	d2 c2 
 110:	18 c3       	bic	#1,	r8	;r3 As==01
 112:	08 69       	addc	r9,	r8	
 114:	00 01       	.word	0x0100;	????	
 116:	55 33       	jn	$-340    	;abs 0xffc2
 118:	00 00       	.word	0x0000;	????	
 11a:	00 02       	.word	0x0200;	????	
 11c:	91 52 00 00 	add	&0x0000,2560(r1);0x0a00(r1)
 120:	00 0a 
 122:	33 00       	.word	0x0033;	????	
 124:	00 00       	.word	0x0000;	????	
 126:	31 01       	.word	0x0131;	????	
 128:	00 00       	.word	0x0000;	????	
 12a:	0b 25       	jz	$+536    	;abs 0x342
 12c:	00 00       	.word	0x0000;	????	
 12e:	00 03       	.word	0x0300;	????	
 130:	00 0a       	.word	0x0a00;	????	
 132:	6a 00       	.word	0x006a;	????	
 134:	00 00       	.word	0x0000;	????	
 136:	41 01       	.word	0x0141;	????	
 138:	00 00       	.word	0x0000;	????	
 13a:	0b 25       	jz	$+536    	;abs 0x352
 13c:	00 00       	.word	0x0000;	????	
 13e:	00 1f       	.word	0x1f00;	????	
 140:	00 0c       	.word	0x0c00;	????	
 142:	33 00       	.word	0x0033;	????	
 144:	00 00       	.word	0x0000;	????	
 146:	02 24       	jz	$+6      	;abs 0x14c
 148:	01 31       	jn	$+516    	;abs 0x34c
 14a:	00 00       	.word	0x0000;	????	
 14c:	00 53       	add	#0,	r0	;r3 As==00
 14e:	01 00       	.word	0x0001;	????	
 150:	00 01       	.word	0x0100;	????	
 152:	01 0d       	.word	0x0d01;	????	
 154:	48 00       	.word	0x0048;	????	
 156:	00 00       	.word	0x0000;	????	
 158:	0c d3       	bis	#0,	r12	;r3 As==00
 15a:	00 00       	.word	0x0000;	????	
 15c:	00 02       	.word	0x0200;	????	
 15e:	26 01       	.word	0x0126;	????	
 160:	d1 00       	.word	0x00d1;	????	
 162:	00 00       	.word	0x0000;	????	
 164:	53 01       	.word	0x0153;	????	
 166:	00 00       	.word	0x0000;	????	
 168:	01 01       	.word	0x0101;	????	
 16a:	0c 3c       	jmp	$+26     	;abs 0x184
 16c:	00 00       	.word	0x0000;	????	
 16e:	00 02       	.word	0x0200;	????	
 170:	8a 03       	.word	0x038a;	????	
 172:	3a 00       	.word	0x003a;	????	
 174:	00 00       	.word	0x0000;	????	
 176:	7c 01       	.word	0x017c;	????	
 178:	00 00       	.word	0x0000;	????	
 17a:	01 01       	.word	0x0101;	????	
 17c:	0d 25       	jz	$+540    	;abs 0x398
 17e:	00 00       	.word	0x0000;	????	
 180:	00 0c       	.word	0x0c00;	????	
 182:	7a 00       	.word	0x007a;	????	
 184:	00 00       	.word	0x0000;	????	
 186:	02 c6       	bic	r6,	r2	
 188:	03 78       	.word	0x7803;	????	Illegal as 2-op instr
 18a:	00 00       	.word	0x0000;	????	
 18c:	00 93       	tst	r0		
 18e:	01 00       	.word	0x0001;	????	
 190:	00 01       	.word	0x0100;	????	
 192:	01 0e       	.word	0x0e01;	????	
 194:	53 01       	.word	0x0153;	????	
 196:	00 00       	.word	0x0000;	????	
 198:	0c dd       	bis	r13,	r12	
 19a:	00 00       	.word	0x0000;	????	
 19c:	00 02       	.word	0x0200;	????	
 19e:	c8 03       	.word	0x03c8;	????	
 1a0:	db 00       	.word	0x00db;	????	
 1a2:	00 00       	.word	0x0000;	????	
 1a4:	93 01       	.word	0x0193;	????	
 1a6:	00 00       	.word	0x0000;	????	
 1a8:	01 01       	.word	0x0101;	????	
 1aa:	00 3e       	jmp	$-1022   	;abs 0xfdac
 1ac:	00 00       	.word	0x0000;	????	
 1ae:	00 02       	.word	0x0200;	????	
 1b0:	00 b4       	bit	r4,	r0	
 1b2:	00 00       	.word	0x0000;	????	
 1b4:	00 02       	.word	0x0200;	????	
 1b6:	01 22       	jnz	$-1020   	;abs 0xfdba
 1b8:	01 00       	.word	0x0001;	????	
 1ba:	00 2e       	jc	$-1022   	;abs 0xfdbc
 1bc:	c3 32       	jn	$-632    	;abs 0xff44
 1be:	c3 66       	addc.b	r6,	#1	;r3 As==01
 1c0:	75 6e       	addc.b	@r14+,	r5	
 1c2:	63 2f       	jc	$-312    	;abs 0x8a
 1c4:	61 64       	addc.b	@r4,	r1	
 1c6:	64 2e       	jc	$-822    	;abs 0xfe90
 1c8:	53 00       	.word	0x0053;	????	
 1ca:	2f 68       	addc	@r8,	r15	
 1cc:	6f 6d       	addc.b	@r13,	r15	
 1ce:	65 2f       	jc	$-308    	;abs 0x9a
 1d0:	6c 33       	jn	$-294    	;abs 0xaa
 1d2:	2f 43       	mov	#2,	r15	;r3 As==10
 1d4:	53 32       	jn	$-856    	;abs 0xfe7c
 1d6:	32 33       	jn	$-410    	;abs 0x3c
 1d8:	30 2f       	jc	$-414    	;abs 0x3a
 1da:	61 31       	jn	$+708    	;abs 0x49e
 1dc:	00 47       	br	r7		
 1de:	4e 55       	add.b	r5,	r14	
 1e0:	20 41       	br	@r1		
 1e2:	53 20       	jnz	$+168    	;abs 0x28a
 1e4:	32 2e       	jc	$-922    	;abs 0xfe4a
 1e6:	32 31       	jn	$+614    	;abs 0x44c
 1e8:	2e 31       	jn	$+606    	;abs 0x446
 1ea:	00 01       	.word	0x0100;	????	
 1ec:	80 3f       	jmp	$-254    	;abs 0xee
 1ee:	00 00       	.word	0x0000;	????	
 1f0:	00 02       	.word	0x0200;	????	
 1f2:	00 c8       	bic	r8,	r0	
 1f4:	00 00       	.word	0x0000;	????	
 1f6:	00 02       	.word	0x0200;	????	
 1f8:	01 59       	add	r9,	r1	
 1fa:	01 00       	.word	0x0001;	????	
 1fc:	00 32       	jn	$-1022   	;abs 0xfdfe
 1fe:	c3 6c       	addc.b	r12,	#1	;r3 As==01
 200:	c3 66       	addc.b	r6,	#1	;r3 As==01
 202:	75 6e       	addc.b	@r14+,	r5	
 204:	63 2f       	jc	$-312    	;abs 0xcc
 206:	64 69       	addc.b	@r9,	r4	
 208:	76 64       	addc.b	@r4+,	r6	
 20a:	2e 53       	incd	r14		
 20c:	00 2f       	jc	$-510    	;abs 0xe
 20e:	68 6f       	addc.b	@r15,	r8	
 210:	6d 65       	addc.b	@r5,	r13	
 212:	2f 6c       	addc	@r12,	r15	
 214:	33 2f       	jc	$-408    	;abs 0x7c
 216:	43 53       	.word	0x5343;	????	Illegal as emulation instr
 218:	32 32       	jn	$-922    	;abs 0xfe7e
 21a:	33 30       	jn	$+104    	;abs 0x282
 21c:	2f 61       	addc	@r1,	r15	
 21e:	31 00       	.word	0x0031;	????	
 220:	47 4e       	mov.b	r14,	r7	
 222:	55 20       	jnz	$+172    	;abs 0x2ce
 224:	41 53       	add.b	#0,	r1	;r3 As==00
 226:	20 32       	jn	$-958    	;abs 0xfe68
 228:	2e 32       	jn	$-930    	;abs 0xfe86
 22a:	31 2e       	jc	$-924    	;abs 0xfe8e
 22c:	31 00       	.word	0x0031;	????	
 22e:	01 80       	sub	r0,	r1	
 230:	39 00       	.word	0x0039;	????	
 232:	00 00       	.word	0x0000;	????	
 234:	02 00       	.word	0x0002;	????	
 236:	dc 00       	.word	0x00dc;	????	
 238:	00 00       	.word	0x0000;	????	
 23a:	02 01       	.word	0x0102;	????	
 23c:	ac 01       	.word	0x01ac;	????	
 23e:	00 00       	.word	0x0000;	????	
 240:	6c c3       	bic.b	#2,	r12	;r3 As==10
 242:	9e c3 6d 6f 	bic	#1,	28525(r14);r3 As==01, 0x6f6d(r14)
 246:	64 2e       	jc	$-822    	;abs 0xff10
 248:	53 00       	.word	0x0053;	????	
 24a:	2f 68       	addc	@r8,	r15	
 24c:	6f 6d       	addc.b	@r13,	r15	
 24e:	65 2f       	jc	$-308    	;abs 0x11a
 250:	6c 33       	jn	$-294    	;abs 0x12a
 252:	2f 43       	mov	#2,	r15	;r3 As==10
 254:	53 32       	jn	$-856    	;abs 0xfefc
 256:	32 33       	jn	$-410    	;abs 0xbc
 258:	30 2f       	jc	$-414    	;abs 0xba
 25a:	61 31       	jn	$+708    	;abs 0x51e
 25c:	00 47       	br	r7		
 25e:	4e 55       	add.b	r5,	r14	
 260:	20 41       	br	@r1		
 262:	53 20       	jnz	$+168    	;abs 0x30a
 264:	32 2e       	jc	$-922    	;abs 0xfeca
 266:	32 31       	jn	$+614    	;abs 0x4cc
 268:	2e 31       	jn	$+606    	;abs 0x4c6
 26a:	00 01       	.word	0x0100;	????	
 26c:	80 3e       	jmp	$-766    	;abs 0xff6e
 26e:	00 00       	.word	0x0000;	????	
 270:	00 02       	.word	0x0200;	????	
 272:	00 f0       	and	r0,	r0	
 274:	00 00       	.word	0x0000;	????	
 276:	00 02       	.word	0x0200;	????	
 278:	01 f5       	and	r5,	r1	
 27a:	01 00       	.word	0x0001;	????	
 27c:	00 9e       	cmp	r14,	r0	
 27e:	c3 c0       	bic.b	r0,	#1	;r3 As==01
 280:	c3 66       	addc.b	r6,	#1	;r3 As==01
 282:	75 6e       	addc.b	@r14+,	r5	
 284:	63 2f       	jc	$-312    	;abs 0x14c
 286:	6d 75       	subc.b	@r5,	r13	
 288:	6c 2e       	jc	$-806    	;abs 0xff62
 28a:	53 00       	.word	0x0053;	????	
 28c:	2f 68       	addc	@r8,	r15	
 28e:	6f 6d       	addc.b	@r13,	r15	
 290:	65 2f       	jc	$-308    	;abs 0x15c
 292:	6c 33       	jn	$-294    	;abs 0x16c
 294:	2f 43       	mov	#2,	r15	;r3 As==10
 296:	53 32       	jn	$-856    	;abs 0xff3e
 298:	32 33       	jn	$-410    	;abs 0xfe
 29a:	30 2f       	jc	$-414    	;abs 0xfc
 29c:	61 31       	jn	$+708    	;abs 0x560
 29e:	00 47       	br	r7		
 2a0:	4e 55       	add.b	r5,	r14	
 2a2:	20 41       	br	@r1		
 2a4:	53 20       	jnz	$+168    	;abs 0x34c
 2a6:	32 2e       	jc	$-922    	;abs 0xff0c
 2a8:	32 31       	jn	$+614    	;abs 0x50e
 2aa:	2e 31       	jn	$+606    	;abs 0x508
 2ac:	00 01       	.word	0x0100;	????	
 2ae:	80 3f       	jmp	$-254    	;abs 0x1b0
 2b0:	00 00       	.word	0x0000;	????	
 2b2:	00 02       	.word	0x0200;	????	
 2b4:	00 04       	.word	0x0400;	????	
 2b6:	01 00       	.word	0x0001;	????	
 2b8:	00 02       	.word	0x0200;	????	
 2ba:	01 3b       	jl	$-508    	;abs 0xbe
 2bc:	02 00       	.word	0x0002;	????	
 2be:	00 c0       	bic	r0,	r0	
 2c0:	c3 ec       	xor.b	r12,	#1	;r3 As==01
 2c2:	c3 66       	addc.b	r6,	#1	;r3 As==01
 2c4:	75 6e       	addc.b	@r14+,	r5	
 2c6:	63 2f       	jc	$-312    	;abs 0x18e
 2c8:	70 6f       	addc.b	@r15+,	r0	
 2ca:	77 72       	subc.b	#8,	r7	;r2 As==11
 2cc:	2e 53       	incd	r14		
 2ce:	00 2f       	jc	$-510    	;abs 0xd0
 2d0:	68 6f       	addc.b	@r15,	r8	
 2d2:	6d 65       	addc.b	@r5,	r13	
 2d4:	2f 6c       	addc	@r12,	r15	
 2d6:	33 2f       	jc	$-408    	;abs 0x13e
 2d8:	43 53       	.word	0x5343;	????	Illegal as emulation instr
 2da:	32 32       	jn	$-922    	;abs 0xff40
 2dc:	33 30       	jn	$+104    	;abs 0x344
 2de:	2f 61       	addc	@r1,	r15	
 2e0:	31 00       	.word	0x0031;	????	
 2e2:	47 4e       	mov.b	r14,	r7	
 2e4:	55 20       	jnz	$+172    	;abs 0x390
 2e6:	41 53       	add.b	#0,	r1	;r3 As==00
 2e8:	20 32       	jn	$-958    	;abs 0xff2a
 2ea:	2e 32       	jn	$-930    	;abs 0xff48
 2ec:	31 2e       	jc	$-924    	;abs 0xff50
 2ee:	31 00       	.word	0x0031;	????	
 2f0:	01 80       	sub	r0,	r1	
 2f2:	3e 00       	.word	0x003e;	????	
 2f4:	00 00       	.word	0x0000;	????	
 2f6:	02 00       	.word	0x0002;	????	
 2f8:	18 01       	.word	0x0118;	????	
 2fa:	00 00       	.word	0x0000;	????	
 2fc:	02 01       	.word	0x0102;	????	
 2fe:	87 02       	.word	0x0287;	????	
 300:	00 00       	.word	0x0000;	????	
 302:	ec c3 f0 c3 	bic.b	#2,	-15376(r12);r3 As==10, 0xc3f0(r12)
 306:	66 75       	subc.b	@r5,	r6	
 308:	6e 63       	addc.b	#2,	r14	;r3 As==10
 30a:	2f 73       	subc	#2,	r15	;r3 As==10
 30c:	75 62       	addc.b	#8,	r5	;r2 As==11
 30e:	2e 53       	incd	r14		
 310:	00 2f       	jc	$-510    	;abs 0x112
 312:	68 6f       	addc.b	@r15,	r8	
 314:	6d 65       	addc.b	@r5,	r13	
 316:	2f 6c       	addc	@r12,	r15	
 318:	33 2f       	jc	$-408    	;abs 0x180
 31a:	43 53       	.word	0x5343;	????	Illegal as emulation instr
 31c:	32 32       	jn	$-922    	;abs 0xff82
 31e:	33 30       	jn	$+104    	;abs 0x386
 320:	2f 61       	addc	@r1,	r15	
 322:	31 00       	.word	0x0031;	????	
 324:	47 4e       	mov.b	r14,	r7	
 326:	55 20       	jnz	$+172    	;abs 0x3d2
 328:	41 53       	add.b	#0,	r1	;r3 As==00
 32a:	20 32       	jn	$-958    	;abs 0xff6c
 32c:	2e 32       	jn	$-930    	;abs 0xff8a
 32e:	31 2e       	jc	$-924    	;abs 0xff92
 330:	31 00       	.word	0x0031;	????	
 332:	01 80       	sub	r0,	r1	
 334:	50 02       	.word	0x0250;	????	
 336:	00 00       	.word	0x0000;	????	
 338:	02 00       	.word	0x0002;	????	
 33a:	2c 01       	.word	0x012c;	????	
 33c:	00 00       	.word	0x0000;	????	
 33e:	02 01       	.word	0x0102;	????	
 340:	43 00       	.word	0x0043;	????	
 342:	00 00       	.word	0x0000;	????	
 344:	01 63       	adc	r1		
 346:	01 00       	.word	0x0001;	????	
 348:	00 11       	rra	r0		
 34a:	01 00       	.word	0x0001;	????	
 34c:	00 f0       	and	r0,	r0	
 34e:	c3 5a       	add.b	r10,	#1	;r3 As==01
 350:	c6 be 02 00 	bit.b	r14,	2(r6)	;0x0002(r6)
 354:	00 02       	.word	0x0200;	????	
 356:	7c 01       	.word	0x017c;	????	
 358:	00 00       	.word	0x0000;	????	
 35a:	02 28       	jnc	$+6      	;abs 0x360
 35c:	2c 00       	.word	0x002c;	????	
 35e:	00 00       	.word	0x0000;	????	
 360:	03 02       	.word	0x0203;	????	
 362:	ff 00       	.word	0x00ff;	????	
 364:	00 00       	.word	0x0000;	????	
 366:	02 83       	sub	#0,	r2	;r3 As==00
 368:	01 00       	.word	0x0001;	????	
 36a:	00 02       	.word	0x0200;	????	
 36c:	66 21       	jnz	$+718    	;abs 0x63a
 36e:	00 00       	.word	0x0000;	????	
 370:	00 04       	.word	0x0400;	????	
 372:	4a 01       	.word	0x014a;	????	
 374:	00 00       	.word	0x0000;	????	
 376:	01 59       	add	r9,	r1	
 378:	01 f0       	and	r0,	r1	
 37a:	c3 5a       	add.b	r10,	#1	;r3 As==01
 37c:	c4 4c 00 00 	mov.b	r12,	0(r4)	;0x0000(r4)
 380:	00 87       	sub	r7,	r0	
 382:	00 00       	.word	0x0000;	????	
 384:	00 05       	.word	0x0500;	????	
 386:	78 00       	.word	0x0078;	????	
 388:	01 59       	add	r9,	r1	
 38a:	87 00       	.word	0x0087;	????	
 38c:	00 00       	.word	0x0000;	????	
 38e:	80 00       	.word	0x0080;	????	
 390:	00 00       	.word	0x0000;	????	
 392:	05 64       	addc	r4,	r5	
 394:	70 00       	.word	0x0070;	????	
 396:	01 59       	add	r9,	r1	
 398:	8e 00       	.word	0x008e;	????	
 39a:	00 00       	.word	0x0000;	????	
 39c:	9c 00       	.word	0x009c;	????	
 39e:	00 00       	.word	0x0000;	????	
 3a0:	06 63       	adc	r6		
 3a2:	00 01       	.word	0x0100;	????	
 3a4:	5b 99 00 00 	cmp.b	0(r9),	r11	;0x0000(r9)
 3a8:	00 ae       	dadd	r14,	r0	
 3aa:	00 00       	.word	0x0000;	????	
 3ac:	00 06       	.word	0x0600;	????	
 3ae:	64 00       	.word	0x0064;	????	
 3b0:	01 5c       	add	r12,	r1	
 3b2:	87 00       	.word	0x0087;	????	
 3b4:	00 00       	.word	0x0000;	????	
 3b6:	c2 00       	.word	0x00c2;	????	
 3b8:	00 00       	.word	0x0000;	????	
 3ba:	00 07       	.word	0x0700;	????	
 3bc:	04 07       	.word	0x0704;	????	
 3be:	a6 00       	.word	0x00a6;	????	
 3c0:	00 00       	.word	0x0000;	????	
 3c2:	08 02       	.word	0x0208;	????	
 3c4:	94 00       	.word	0x0094;	????	
 3c6:	00 00       	.word	0x0000;	????	
 3c8:	09 87       	sub	r7,	r9	
 3ca:	00 00       	.word	0x0000;	????	
 3cc:	00 07       	.word	0x0700;	????	
 3ce:	01 06       	.word	0x0601;	????	
 3d0:	8f 00       	.word	0x008f;	????	
 3d2:	00 00       	.word	0x0000;	????	
 3d4:	0a 5d       	add	r13,	r10	
 3d6:	01 00       	.word	0x0001;	????	
 3d8:	00 01       	.word	0x0100;	????	
 3da:	53 01       	.word	0x0153;	????	
 3dc:	5a c4 68 c4 	bic.b	-15256(r4),r10	;0xc468(r4)
 3e0:	02 71       	subc	r1,	r2	
 3e2:	02 d0       	bis	r0,	r2	
 3e4:	00 00       	.word	0x0000;	????	
 3e6:	00 05       	.word	0x0500;	????	
 3e8:	6e 00       	.word	0x006e;	????	
 3ea:	01 53       	add	#0,	r1	;r3 As==00
 3ec:	d0 00       	.word	0x00d0;	????	
 3ee:	00 00       	.word	0x0000;	????	
 3f0:	da 00       	.word	0x00da;	????	
 3f2:	00 00       	.word	0x0000;	????	
 3f4:	0b 68       	addc	r8,	r11	
 3f6:	65 78       	subc.b	@r8,	r5	
 3f8:	00 01       	.word	0x0100;	????	
 3fa:	55 e7 00 00 	xor.b	0(r7),	r5	;0x0000(r7)
 3fe:	00 03       	.word	0x0300;	????	
 400:	03 6c       	.word	0x6c03;	????	Illegal as 2-op instr
 402:	ca 00       	.word	0x00ca;	????	
 404:	07 02       	.word	0x0207;	????	
 406:	07 ab       	dadd	r11,	r7	
 408:	00 00       	.word	0x0000;	????	
 40a:	00 0c       	.word	0x0c00;	????	
 40c:	99 00       	.word	0x0099;	????	
 40e:	00 00       	.word	0x0000;	????	
 410:	e7 00       	.word	0x00e7;	????	
 412:	00 00       	.word	0x0000;	????	
 414:	0d d0       	bis	r0,	r13	
 416:	00 00       	.word	0x0000;	????	
 418:	00 0f       	.word	0x0f00;	????	
 41a:	00 09       	.word	0x0900;	????	
 41c:	d7 00       	.word	0x00d7;	????	
 41e:	00 00       	.word	0x0000;	????	
 420:	0e 01       	.word	0x010e;	????	
 422:	72 01       	.word	0x0172;	????	
 424:	00 00       	.word	0x0000;	????	
 426:	01 18       	.word	0x1801;	????	
 428:	01 68       	addc	r8,	r1	
 42a:	c4 7c c4 e5 	subc.b	r12,	-6716(r4);0xe5c4(r4)
 42e:	00 00       	.word	0x0000;	????	
 430:	00 1e       	.word	0x1e00;	????	
 432:	01 00       	.word	0x0001;	????	
 434:	00 0f       	.word	0x0f00;	????	
 436:	1e 00       	.word	0x001e;	????	
 438:	00 00       	.word	0x0000;	????	
 43a:	01 18       	.word	0x1801;	????	
 43c:	1e 01       	.word	0x011e;	????	
 43e:	00 00       	.word	0x0000;	????	
 440:	f9 00       	.word	0x00f9;	????	
 442:	00 00       	.word	0x0000;	????	
 444:	06 69       	addc	r9,	r6	
 446:	00 01       	.word	0x0100;	????	
 448:	1a 24       	jz	$+54     	;abs 0x47e
 44a:	01 00       	.word	0x0001;	????	
 44c:	00 04       	.word	0x0400;	????	
 44e:	01 00       	.word	0x0001;	????	
 450:	00 00       	.word	0x0000;	????	
 452:	08 02       	.word	0x0208;	????	
 454:	99 00       	.word	0x0099;	????	
 456:	00 00       	.word	0x0000;	????	
 458:	10 02       	.word	0x0210;	????	
 45a:	05 69       	addc	r9,	r5	
 45c:	6e 74       	subc.b	@r4,	r14	
 45e:	00 0e       	.word	0x0e00;	????	
 460:	01 3f       	jmp	$-508    	;abs 0x264
 462:	01 00       	.word	0x0001;	????	
 464:	00 01       	.word	0x0100;	????	
 466:	21 01       	.word	0x0121;	????	
 468:	7c c4       	bic.b	@r4+,	r12	
 46a:	f6 c4 10 01 	bic.b	@r4+,	272(r6)	;0x0110(r6)
 46e:	00 00       	.word	0x0000;	????	
 470:	76 01       	.word	0x0176;	????	
 472:	00 00       	.word	0x0000;	????	
 474:	05 6e       	addc	r14,	r5	
 476:	00 01       	.word	0x0100;	????	
 478:	21 24       	jz	$+68     	;abs 0x4bc
 47a:	01 00       	.word	0x0001;	????	
 47c:	00 3c       	jmp	$+2      	;abs 0x47e
 47e:	01 00       	.word	0x0001;	????	
 480:	00 11       	rra	r0		
 482:	8b 01       	.word	0x018b;	????	
 484:	00 00       	.word	0x0000;	????	
 486:	01 23       	jnz	$-508    	;abs 0x28a
 488:	76 01       	.word	0x0176;	????	
 48a:	00 00       	.word	0x0000;	????	
 48c:	02 91       	cmp	r1,	r2	
 48e:	58 06       	.word	0x0658;	????	
 490:	69 00       	.word	0x0069;	????	
 492:	01 24       	jz	$+4      	;abs 0x496
 494:	24 01       	.word	0x0124;	????	
 496:	00 00       	.word	0x0000;	????	
 498:	63 01       	.word	0x0163;	????	
 49a:	00 00       	.word	0x0000;	????	
 49c:	06 6a       	addc	r10,	r6	
 49e:	00 01       	.word	0x0100;	????	
 4a0:	25 24       	jz	$+76     	;abs 0x4ec
 4a2:	01 00       	.word	0x0001;	????	
 4a4:	00 6e       	addc	r14,	r0	
 4a6:	01 00       	.word	0x0001;	????	
 4a8:	00 00       	.word	0x0000;	????	
 4aa:	0c 24       	jz	$+26     	;abs 0x4c4
 4ac:	01 00       	.word	0x0001;	????	
 4ae:	00 86       	sub	r6,	r0	
 4b0:	01 00       	.word	0x0001;	????	
 4b2:	00 0d       	.word	0x0d00;	????	
 4b4:	d0 00       	.word	0x00d0;	????	
 4b6:	00 00       	.word	0x0000;	????	
 4b8:	0f 00       	.word	0x000f;	????	
 4ba:	0e 01       	.word	0x010e;	????	
 4bc:	e9 00       	.word	0x00e9;	????	
 4be:	00 00       	.word	0x0000;	????	
 4c0:	01 36       	jge	$-1020   	;abs 0xc4
 4c2:	01 f6       	and	r6,	r1	
 4c4:	c4 30       	jn	$+394    	;abs 0x64e
 4c6:	c5 7b 01 00 	subc.b	r11,	1(r5)	;0x0001(r5)
 4ca:	00 c5       	bic	r5,	r0	
 4cc:	01 00       	.word	0x0001;	????	
 4ce:	00 05       	.word	0x0500;	????	
 4d0:	6e 00       	.word	0x006e;	????	
 4d2:	01 36       	jge	$-1020   	;abs 0xd6
 4d4:	24 01       	.word	0x0124;	????	
 4d6:	00 00       	.word	0x0000;	????	
 4d8:	97 01       	.word	0x0197;	????	
 4da:	00 00       	.word	0x0000;	????	
 4dc:	0f 58       	add	r8,	r15	
 4de:	01 00       	.word	0x0001;	????	
 4e0:	00 01       	.word	0x0100;	????	
 4e2:	36 24       	jz	$+110    	;abs 0x550
 4e4:	01 00       	.word	0x0001;	????	
 4e6:	00 a9       	dadd	r9,	r0	
 4e8:	01 00       	.word	0x0001;	????	
 4ea:	00 06       	.word	0x0600;	????	
 4ec:	69 00       	.word	0x0069;	????	
 4ee:	01 38       	jl	$+4      	;abs 0x4f2
 4f0:	24 01       	.word	0x0124;	????	
 4f2:	00 00       	.word	0x0000;	????	
 4f4:	b4 01       	.word	0x01b4;	????	
 4f6:	00 00       	.word	0x0000;	????	
 4f8:	00 0e       	.word	0x0e00;	????	
 4fa:	01 f4       	and	r4,	r1	
 4fc:	00 00       	.word	0x0000;	????	
 4fe:	00 01       	.word	0x0100;	????	
 500:	6a 01       	.word	0x016a;	????	
 502:	30 c5       	bic	@r5+,	r0	
 504:	5a c6 c6 01 	bic.b	454(r6),r10	;0x01c6(r6)
 508:	00 00       	.word	0x0000;	????	
 50a:	28 02       	.word	0x0228;	????	
 50c:	00 00       	.word	0x0000;	????	
 50e:	0f 6b       	addc	r11,	r15	
 510:	01 00       	.word	0x0001;	????	
 512:	00 01       	.word	0x0100;	????	
 514:	6a 1e       	.word	0x1e6a;	????	
 516:	01 00       	.word	0x0001;	????	
 518:	00 f2       	and	r2,	r0	
 51a:	01 00       	.word	0x0001;	????	
 51c:	00 12       	push	r0		
 51e:	06 63       	adc	r6		
 520:	00 01       	.word	0x0100;	????	
 522:	6c 99       	cmp.b	@r9,	r12	
 524:	00 00       	.word	0x0000;	????	
 526:	00 27       	jz	$-510    	;abs 0x328
 528:	02 00       	.word	0x0002;	????	
 52a:	00 06       	.word	0x0600;	????	
 52c:	69 00       	.word	0x0069;	????	
 52e:	01 6d       	addc	r13,	r1	
 530:	24 01       	.word	0x0124;	????	
 532:	00 00       	.word	0x0000;	????	
 534:	94 02       	.word	0x0294;	????	
 536:	00 00       	.word	0x0000;	????	
 538:	06 6e       	addc	r14,	r6	
 53a:	00 01       	.word	0x0100;	????	
 53c:	6e 28       	jnc	$+222    	;abs 0x61a
 53e:	02 00       	.word	0x0002;	????	
 540:	00 b6       	bit	r6,	r0	
 542:	02 00       	.word	0x0002;	????	
 544:	00 06       	.word	0x0600;	????	
 546:	61 00       	.word	0x0061;	????	
 548:	01 70       	subc	r0,	r1	
 54a:	32 00       	.word	0x0032;	????	
 54c:	00 00       	.word	0x0000;	????	
 54e:	e1 02       	.word	0x02e1;	????	
 550:	00 00       	.word	0x0000;	????	
 552:	13 50       	.word	0x5013;	????	Illegal as 2-op instr
 554:	01 00       	.word	0x0001;	????	
 556:	00 01       	.word	0x0100;	????	
 558:	95 46 c6 00 	mov	198(r6),1031(r5);0x00c6(r6), 0x0407(r5)
 55c:	07 04 
 55e:	05 28       	jnc	$+12     	;abs 0x56a
 560:	00 00       	.word	0x0000;	????	
 562:	00 0c       	.word	0x0c00;	????	
 564:	87 00       	.word	0x0087;	????	
 566:	00 00       	.word	0x0000;	????	
 568:	3f 02       	.word	0x023f;	????	
 56a:	00 00       	.word	0x0000;	????	
 56c:	0d d0       	bis	r0,	r13	
 56e:	00 00       	.word	0x0000;	????	
 570:	00 09       	.word	0x0900;	????	
 572:	00 0b       	.word	0x0b00;	????	
 574:	5f 64 76 00 	addc.b	118(r4),r15	;0x0076(r4)
 578:	01 44       	mov	r4,	r1	
 57a:	4e 02       	.word	0x024e;	????	
 57c:	00 00       	.word	0x0000;	????	
 57e:	03 03       	.word	0x0303;	????	
 580:	44 ca       	bic.b	r10,	r4	
 582:	09 2f       	jc	$-492    	;abs 0x396
 584:	02 00       	.word	0x0002;	????	
 586:	00 00       	.word	0x0000;	????	
 588:	5a 00       	.word	0x005a;	????	
 58a:	00 00       	.word	0x0000;	????	
 58c:	02 00       	.word	0x0002;	????	
 58e:	2c 02       	.word	0x022c;	????	
 590:	00 00       	.word	0x0000;	????	
 592:	02 01       	.word	0x0102;	????	
 594:	43 00       	.word	0x0043;	????	
 596:	00 00       	.word	0x0000;	????	
 598:	01 a6       	dadd	r6,	r1	
 59a:	01 00       	.word	0x0001;	????	
 59c:	00 11       	rra	r0		
 59e:	01 00       	.word	0x0001;	????	
 5a0:	00 5a       	add	r10,	r0	
 5a2:	c6 66 c6 f9 	addc.b	r6,	-1594(r6);0xf9c6(r6)
 5a6:	03 00       	.word	0x0003;	????	
 5a8:	00 02       	.word	0x0200;	????	
 5aa:	01 9b       	cmp	r11,	r1	
 5ac:	01 00       	.word	0x0001;	????	
 5ae:	00 01       	.word	0x0100;	????	
 5b0:	17 01       	.word	0x0117;	????	
 5b2:	5a c6 60 c6 	bic.b	-14752(r6),r10	;0xc660(r6)
 5b6:	02 71       	subc	r1,	r2	
 5b8:	02 43       	clr	r2		
 5ba:	00 00       	.word	0x0000;	????	
 5bc:	00 03       	.word	0x0300;	????	
 5be:	63 00       	.word	0x0063;	????	
 5c0:	01 17       	.word	0x1701;	????	
 5c2:	43 00       	.word	0x0043;	????	
 5c4:	00 00       	.word	0x0000;	????	
 5c6:	32 03       	.word	0x0332;	????	
 5c8:	00 00       	.word	0x0000;	????	
 5ca:	00 04       	.word	0x0400;	????	
 5cc:	01 06       	.word	0x0601;	????	
 5ce:	8f 00       	.word	0x008f;	????	
 5d0:	00 00       	.word	0x0000;	????	
 5d2:	05 01       	.word	0x0105;	????	
 5d4:	92 01       	.word	0x0192;	????	
 5d6:	00 00       	.word	0x0000;	????	
 5d8:	01 1c       	.word	0x1c01;	????	
 5da:	43 00       	.word	0x0043;	????	
 5dc:	00 00       	.word	0x0000;	????	
 5de:	60 c6       	bic.b	@r6,	r0	
 5e0:	66 c6       	bic.b	@r6,	r6	
 5e2:	02 71       	subc	r1,	r2	
 5e4:	02 00       	.word	0x0002;	????	
 5e6:	c3 01       	.word	0x01c3;	????	
 5e8:	00 00       	.word	0x0000;	????	
 5ea:	02 00       	.word	0x0002;	????	
 5ec:	86 02       	.word	0x0286;	????	
 5ee:	00 00       	.word	0x0000;	????	
 5f0:	02 01       	.word	0x0102;	????	
 5f2:	43 00       	.word	0x0043;	????	
 5f4:	00 00       	.word	0x0000;	????	
 5f6:	01 d3       	bis	#0,	r1	;r3 As==00
 5f8:	01 00       	.word	0x0001;	????	
 5fa:	00 99       	cmp	r9,	r0	
 5fc:	02 00       	.word	0x0002;	????	
 5fe:	00 66       	addc	r6,	r0	
 600:	c6 c8 c7 3a 	bic.b	r8,	15047(r6);0x3ac7(r6)
 604:	04 00       	.word	0x0004;	????	
 606:	00 02       	.word	0x0200;	????	
 608:	02 07       	.word	0x0702;	????	
 60a:	ab 00       	.word	0x00ab;	????	
 60c:	00 00       	.word	0x0000;	????	
 60e:	02 01       	.word	0x0102;	????	
 610:	06 88       	sub	r8,	r6	
 612:	00 00       	.word	0x0000;	????	
 614:	00 03       	.word	0x0300;	????	
 616:	02 05       	.word	0x0502;	????	
 618:	69 6e       	addc.b	@r14,	r9	
 61a:	74 00       	.word	0x0074;	????	
 61c:	02 04       	.word	0x0402;	????	
 61e:	05 28       	jnc	$+12     	;abs 0x62a
 620:	00 00       	.word	0x0000;	????	
 622:	00 02       	.word	0x0200;	????	
 624:	08 05       	.word	0x0508;	????	
 626:	23 00       	.word	0x0023;	????	
 628:	00 00       	.word	0x0000;	????	
 62a:	02 01       	.word	0x0102;	????	
 62c:	08 86       	sub	r6,	r8	
 62e:	00 00       	.word	0x0000;	????	
 630:	00 02       	.word	0x0200;	????	
 632:	04 07       	.word	0x0704;	????	
 634:	a6 00       	.word	0x00a6;	????	
 636:	00 00       	.word	0x0000;	????	
 638:	02 08       	.word	0x0802;	????	
 63a:	07 a1       	dadd	r1,	r7	
 63c:	00 00       	.word	0x0000;	????	
 63e:	00 04       	.word	0x0400;	????	
 640:	01 36       	jge	$-1020   	;abs 0x244
 642:	02 00       	.word	0x0002;	????	
 644:	00 01       	.word	0x0100;	????	
 646:	2a 01       	.word	0x012a;	????	
 648:	66 c6       	bic.b	@r6,	r6	
 64a:	90 c7 02 71 	bic	28930(r7),-29438(r0);0x7102(r7), PC rel. 0x9350
 64e:	02 8d 
 650:	00 00       	.word	0x0000;	????	
 652:	00 05       	.word	0x0500;	????	
 654:	b5 01       	.word	0x01b5;	????	
 656:	00 00       	.word	0x0000;	????	
 658:	01 2a       	jnc	$-1020   	;abs 0x25c
 65a:	36 00       	.word	0x0036;	????	
 65c:	00 00       	.word	0x0000;	????	
 65e:	06 5e       	add	r14,	r6	
 660:	93 02       	.word	0x0293;	????	
 662:	5f 93       	cmp.b	#1,	r15	;r3 As==01
 664:	02 05       	.word	0x0502;	????	
 666:	2d 02       	.word	0x022d;	????	
 668:	00 00       	.word	0x0000;	????	
 66a:	01 2a       	jnc	$-1020   	;abs 0x26e
 66c:	21 00       	.word	0x0021;	????	
 66e:	00 00       	.word	0x0000;	????	
 670:	01 5d       	add	r13,	r1	
 672:	00 04       	.word	0x0400;	????	
 674:	01 52       	add	r2,	r1	
 676:	02 00       	.word	0x0002;	????	
 678:	00 01       	.word	0x0100;	????	
 67a:	25 01       	.word	0x0125;	????	
 67c:	90 c7 a0 c7 	bic	-14432(r7),28930(r0);0xc7a0(r7), PC rel. 0x7782
 680:	02 71 
 682:	02 b1       	bit	r1,	r2	
 684:	00 00       	.word	0x0000;	????	
 686:	00 06       	.word	0x0600;	????	
 688:	2d 02       	.word	0x022d;	????	
 68a:	00 00       	.word	0x0000;	????	
 68c:	01 25       	jz	$+516    	;abs 0x890
 68e:	21 00       	.word	0x0021;	????	
 690:	00 00       	.word	0x0000;	????	
 692:	3d 03       	.word	0x033d;	????	
 694:	00 00       	.word	0x0000;	????	
 696:	00 04       	.word	0x0400;	????	
 698:	01 0b       	.word	0x0b01;	????	
 69a:	02 00       	.word	0x0002;	????	
 69c:	00 01       	.word	0x0100;	????	
 69e:	5d 01       	.word	0x015d;	????	
 6a0:	a0 c7 a6 c7 	bic	@r7,	-14426(r0);PC rel. 0xce48
 6a4:	02 71       	subc	r1,	r2	
 6a6:	02 d3       	bis	#0,	r2	;r3 As==00
 6a8:	00 00       	.word	0x0000;	????	
 6aa:	00 05       	.word	0x0500;	????	
 6ac:	28 02       	.word	0x0228;	????	
 6ae:	00 00       	.word	0x0000;	????	
 6b0:	01 5d       	add	r13,	r1	
 6b2:	44 00       	.word	0x0044;	????	
 6b4:	00 00       	.word	0x0000;	????	
 6b6:	01 5f       	add	r15,	r1	
 6b8:	00 04       	.word	0x0400;	????	
 6ba:	01 69       	addc	r9,	r1	
 6bc:	02 00       	.word	0x0002;	????	
 6be:	00 01       	.word	0x0100;	????	
 6c0:	62 01       	.word	0x0162;	????	
 6c2:	a6 c7 b4 c7 	bic	@r7,	-14412(r6);0xc7b4(r6)
 6c6:	02 71       	subc	r1,	r2	
 6c8:	02 f5       	and	r5,	r2	
 6ca:	00 00       	.word	0x0000;	????	
 6cc:	00 05       	.word	0x0500;	????	
 6ce:	28 02       	.word	0x0228;	????	
 6d0:	00 00       	.word	0x0000;	????	
 6d2:	01 62       	addc	r2,	r1	
 6d4:	44 00       	.word	0x0044;	????	
 6d6:	00 00       	.word	0x0000;	????	
 6d8:	01 5f       	add	r15,	r1	
 6da:	00 07       	.word	0x0700;	????	
 6dc:	01 ff       	and	r15,	r1	
 6de:	01 00       	.word	0x0001;	????	
 6e0:	00 01       	.word	0x0100;	????	
 6e2:	68 44       	mov.b	@r4,	r8	
 6e4:	00 00       	.word	0x0000;	????	
 6e6:	00 b4       	bit	r4,	r0	
 6e8:	c7 ba c7 02 	bit.b	r10,	711(r7)	;0x02c7(r7)
 6ec:	71 02       	.word	0x0271;	????	
 6ee:	07 01       	.word	0x0107;	????	
 6f0:	be 01       	.word	0x01be;	????	
 6f2:	00 00       	.word	0x0000;	????	
 6f4:	01 6d       	addc	r13,	r1	
 6f6:	44 00       	.word	0x0044;	????	
 6f8:	00 00       	.word	0x0000;	????	
 6fa:	ba c7 c8 c7 	bic	@r7+,	-14392(r10);0xc7c8(r10)
 6fe:	02 71       	subc	r1,	r2	
 700:	02 08       	.word	0x0802;	????	
 702:	80 02       	.word	0x0280;	????	
 704:	00 00       	.word	0x0000;	????	
 706:	02 a0       	dadd	r0,	r2	
 708:	7e 02       	.word	0x027e;	????	
 70a:	00 00       	.word	0x0000;	????	
 70c:	2c 01       	.word	0x012c;	????	
 70e:	00 00       	.word	0x0000;	????	
 710:	01 01       	.word	0x0101;	????	
 712:	09 44       	mov	r4,	r9	
 714:	00 00       	.word	0x0000;	????	
 716:	00 0a       	.word	0x0a00;	????	
 718:	22 02       	.word	0x0222;	????	
 71a:	00 00       	.word	0x0000;	????	
 71c:	02 e4       	xor	r4,	r2	
 71e:	01 20       	jnz	$+4      	;abs 0x722
 720:	02 00       	.word	0x0002;	????	
 722:	00 2c       	jc	$+2      	;abs 0x724
 724:	01 00       	.word	0x0001;	????	
 726:	00 01       	.word	0x0100;	????	
 728:	01 0a       	.word	0x0a01;	????	
 72a:	19 02       	.word	0x0219;	????	
 72c:	00 00       	.word	0x0000;	????	
 72e:	02 e6       	xor	r6,	r2	
 730:	01 17       	.word	0x1701;	????	
 732:	02 00       	.word	0x0002;	????	
 734:	00 2c       	jc	$+2      	;abs 0x736
 736:	01 00       	.word	0x0001;	????	
 738:	00 01       	.word	0x0100;	????	
 73a:	01 0a       	.word	0x0a01;	????	
 73c:	f6 01       	.word	0x01f6;	????	
 73e:	00 00       	.word	0x0000;	????	
 740:	02 b3       	bit	#0,	r2	;r3 As==00
 742:	02 f4       	and	r4,	r2	
 744:	01 00       	.word	0x0001;	????	
 746:	00 2c       	jc	$+2      	;abs 0x748
 748:	01 00       	.word	0x0001;	????	
 74a:	00 01       	.word	0x0100;	????	
 74c:	01 0a       	.word	0x0a01;	????	
 74e:	87 02       	.word	0x0287;	????	
 750:	00 00       	.word	0x0000;	????	
 752:	02 b5       	bit	r5,	r2	
 754:	02 85       	sub	r5,	r2	
 756:	02 00       	.word	0x0002;	????	
 758:	00 2c       	jc	$+2      	;abs 0x75a
 75a:	01 00       	.word	0x0001;	????	
 75c:	00 01       	.word	0x0100;	????	
 75e:	01 0a       	.word	0x0a01;	????	
 760:	91 02       	.word	0x0291;	????	
 762:	00 00       	.word	0x0000;	????	
 764:	02 b7       	bit	r7,	r2	
 766:	02 8f       	sub	r15,	r2	
 768:	02 00       	.word	0x0002;	????	
 76a:	00 2c       	jc	$+2      	;abs 0x76c
 76c:	01 00       	.word	0x0001;	????	
 76e:	00 01       	.word	0x0100;	????	
 770:	01 0a       	.word	0x0a01;	????	
 772:	60 02       	.word	0x0260;	????	
 774:	00 00       	.word	0x0000;	????	
 776:	02 b9       	bit	r9,	r2	
 778:	02 5e       	add	r14,	r2	
 77a:	02 00       	.word	0x0002;	????	
 77c:	00 2c       	jc	$+2      	;abs 0x77e
 77e:	01 00       	.word	0x0001;	????	
 780:	00 01       	.word	0x0100;	????	
 782:	01 0a       	.word	0x0a01;	????	
 784:	ea 01       	.word	0x01ea;	????	
 786:	00 00       	.word	0x0000;	????	
 788:	02 bd       	bit	r13,	r2	
 78a:	02 e8       	xor	r8,	r2	
 78c:	01 00       	.word	0x0001;	????	
 78e:	00 af       	dadd	r15,	r0	
 790:	01 00       	.word	0x0001;	????	
 792:	00 01       	.word	0x0100;	????	
 794:	01 0b       	.word	0x0b01;	????	
 796:	2c 01       	.word	0x012c;	????	
 798:	00 00       	.word	0x0000;	????	
 79a:	0a 48       	mov	r8,	r10	
 79c:	02 00       	.word	0x0002;	????	
 79e:	00 02       	.word	0x0200;	????	
 7a0:	bf 02       	.word	0x02bf;	????	
 7a2:	46 02       	.word	0x0246;	????	
 7a4:	00 00       	.word	0x0000;	????	
 7a6:	2c 01       	.word	0x012c;	????	
 7a8:	00 00       	.word	0x0000;	????	
 7aa:	01 01       	.word	0x0101;	????	
 7ac:	00 86       	sub	r6,	r0	
 7ae:	00 00       	.word	0x0000;	????	
 7b0:	00 02       	.word	0x0200;	????	
 7b2:	00 30       	jn	$+2      	;abs 0x7b4
 7b4:	03 00       	.word	0x0003;	????	
 7b6:	00 02       	.word	0x0200;	????	
 7b8:	01 2b       	jnc	$-508    	;abs 0x5bc
 7ba:	05 00       	.word	0x0005;	????	
 7bc:	00 c8       	bic	r8,	r0	
 7be:	c7 02       	.word	0x02c7;	????	
 7c0:	c8 2e       	jc	$-622    	;abs 0x552
 7c2:	2e 2f       	jc	$-418    	;abs 0x620
 7c4:	2e 2e       	jc	$-930    	;abs 0x422
 7c6:	2f 2e       	jc	$-928    	;abs 0x426
 7c8:	2e 2f       	jc	$-418    	;abs 0x626
 7ca:	2e 2e       	jc	$-930    	;abs 0x428
 7cc:	2f 67       	addc	@r7,	r15	
 7ce:	63 63       	.word	0x6363;	????	Illegal as 2-op instr
 7d0:	2f 6c       	addc	@r12,	r15	
 7d2:	69 62       	addc.b	#4,	r9	;r2 As==10
 7d4:	67 63       	addc.b	#2,	r7	;r3 As==10
 7d6:	63 2f       	jc	$-312    	;abs 0x69e
 7d8:	2e 2e       	jc	$-930    	;abs 0x436
 7da:	2f 67       	addc	@r7,	r15	
 7dc:	63 63       	.word	0x6363;	????	Illegal as 2-op instr
 7de:	2f 63       	addc	#2,	r15	;r3 As==10
 7e0:	6f 6e       	addc.b	@r14,	r15	
 7e2:	66 69       	addc.b	@r9,	r6	
 7e4:	67 2f       	jc	$-304    	;abs 0x6b4
 7e6:	6d 73       	subc.b	#2,	r13	;r3 As==10
 7e8:	70 34       	jge	$+226    	;abs 0x8ca
 7ea:	33 30       	jn	$+104    	;abs 0x852
 7ec:	2f 6c       	addc	@r12,	r15	
 7ee:	69 62       	addc.b	#4,	r9	;r2 As==10
 7f0:	67 63       	addc.b	#2,	r7	;r3 As==10
 7f2:	63 2e       	jc	$-824    	;abs 0x4ba
 7f4:	53 00       	.word	0x0053;	????	
 7f6:	2f 68       	addc	@r8,	r15	
 7f8:	6f 6d       	addc.b	@r13,	r15	
 7fa:	65 2f       	jc	$-308    	;abs 0x6c6
 7fc:	72 6f       	addc.b	@r15+,	r2	
 7fe:	62 65       	addc.b	@r5,	r2	
 800:	72 74       	subc.b	@r4+,	r2	
 802:	69 6e       	addc.b	@r14,	r9	
 804:	61 6e       	addc.b	@r14,	r1	
 806:	74 2f       	jc	$-278    	;abs 0x6f0
 808:	6d 73       	subc.b	#2,	r13	;r3 As==10
 80a:	70 67       	addc.b	@r7+,	r0	
 80c:	63 63       	.word	0x6363;	????	Illegal as 2-op instr
 80e:	2f 42       	mov	#4,	r15	;r2 As==10
 810:	55 49 4c 44 	mov.b	17484(r9),r5	;0x444c(r9)
 814:	2f 67       	addc	@r7,	r15	
 816:	63 63       	.word	0x6363;	????	Illegal as 2-op instr
 818:	2f 6d       	addc	@r13,	r15	
 81a:	73 70       	.word	0x7073;	????	Illegal as 2-op instr
 81c:	34 33       	jn	$-406    	;abs 0x686
 81e:	30 2f       	jc	$-414    	;abs 0x680
 820:	6c 69       	addc.b	@r9,	r12	
 822:	62 67       	addc.b	@r7,	r2	
 824:	63 63       	.word	0x6363;	????	Illegal as 2-op instr
 826:	00 47       	br	r7		
 828:	4e 55       	add.b	r5,	r14	
 82a:	20 41       	br	@r1		
 82c:	53 20       	jnz	$+168    	;abs 0x8d4
 82e:	32 2e       	jc	$-922    	;abs 0x494
 830:	32 31       	jn	$+614    	;abs 0xa96
 832:	2e 31       	jn	$+606    	;abs 0xa90
 834:	00 01       	.word	0x0100;	????	
 836:	80 86 00 00 	sub	r6,	0(r0)	;PC rel. 0x0838
 83a:	00 02       	.word	0x0200;	????	
 83c:	00 44       	br	r4		
 83e:	03 00       	.word	0x0003;	????	
 840:	00 02       	.word	0x0200;	????	
 842:	01 a7       	dadd	r7,	r1	
 844:	05 00       	.word	0x0005;	????	
 846:	00 02       	.word	0x0200;	????	
 848:	c8 24       	jz	$+402    	;abs 0x9da
 84a:	c8 2e       	jc	$-622    	;abs 0x5dc
 84c:	2e 2f       	jc	$-418    	;abs 0x6aa
 84e:	2e 2e       	jc	$-930    	;abs 0x4ac
 850:	2f 2e       	jc	$-928    	;abs 0x4b0
 852:	2e 2f       	jc	$-418    	;abs 0x6b0
 854:	2e 2e       	jc	$-930    	;abs 0x4b2
 856:	2f 67       	addc	@r7,	r15	
 858:	63 63       	.word	0x6363;	????	Illegal as 2-op instr
 85a:	2f 6c       	addc	@r12,	r15	
 85c:	69 62       	addc.b	#4,	r9	;r2 As==10
 85e:	67 63       	addc.b	#2,	r7	;r3 As==10
 860:	63 2f       	jc	$-312    	;abs 0x728
 862:	2e 2e       	jc	$-930    	;abs 0x4c0
 864:	2f 67       	addc	@r7,	r15	
 866:	63 63       	.word	0x6363;	????	Illegal as 2-op instr
 868:	2f 63       	addc	#2,	r15	;r3 As==10
 86a:	6f 6e       	addc.b	@r14,	r15	
 86c:	66 69       	addc.b	@r9,	r6	
 86e:	67 2f       	jc	$-304    	;abs 0x73e
 870:	6d 73       	subc.b	#2,	r13	;r3 As==10
 872:	70 34       	jge	$+226    	;abs 0x954
 874:	33 30       	jn	$+104    	;abs 0x8dc
 876:	2f 6c       	addc	@r12,	r15	
 878:	69 62       	addc.b	#4,	r9	;r2 As==10
 87a:	67 63       	addc.b	#2,	r7	;r3 As==10
 87c:	63 2e       	jc	$-824    	;abs 0x544
 87e:	53 00       	.word	0x0053;	????	
 880:	2f 68       	addc	@r8,	r15	
 882:	6f 6d       	addc.b	@r13,	r15	
 884:	65 2f       	jc	$-308    	;abs 0x750
 886:	72 6f       	addc.b	@r15+,	r2	
 888:	62 65       	addc.b	@r5,	r2	
 88a:	72 74       	subc.b	@r4+,	r2	
 88c:	69 6e       	addc.b	@r14,	r9	
 88e:	61 6e       	addc.b	@r14,	r1	
 890:	74 2f       	jc	$-278    	;abs 0x77a
 892:	6d 73       	subc.b	#2,	r13	;r3 As==10
 894:	70 67       	addc.b	@r7+,	r0	
 896:	63 63       	.word	0x6363;	????	Illegal as 2-op instr
 898:	2f 42       	mov	#4,	r15	;r2 As==10
 89a:	55 49 4c 44 	mov.b	17484(r9),r5	;0x444c(r9)
 89e:	2f 67       	addc	@r7,	r15	
 8a0:	63 63       	.word	0x6363;	????	Illegal as 2-op instr
 8a2:	2f 6d       	addc	@r13,	r15	
 8a4:	73 70       	.word	0x7073;	????	Illegal as 2-op instr
 8a6:	34 33       	jn	$-406    	;abs 0x710
 8a8:	30 2f       	jc	$-414    	;abs 0x70a
 8aa:	6c 69       	addc.b	@r9,	r12	
 8ac:	62 67       	addc.b	@r7,	r2	
 8ae:	63 63       	.word	0x6363;	????	Illegal as 2-op instr
 8b0:	00 47       	br	r7		
 8b2:	4e 55       	add.b	r5,	r14	
 8b4:	20 41       	br	@r1		
 8b6:	53 20       	jnz	$+168    	;abs 0x95e
 8b8:	32 2e       	jc	$-922    	;abs 0x51e
 8ba:	32 31       	jn	$+614    	;abs 0xb20
 8bc:	2e 31       	jn	$+606    	;abs 0xb1a
 8be:	00 01       	.word	0x0100;	????	
 8c0:	80 a3 00 00 	dadc	0(r0)		;PC rel. 0x08c2
 8c4:	00 02       	.word	0x0200;	????	
 8c6:	00 58       	add	r8,	r0	
 8c8:	03 00       	.word	0x0003;	????	
 8ca:	00 02       	.word	0x0200;	????	
 8cc:	01 43       	clr	r1		
 8ce:	00 00       	.word	0x0000;	????	
 8d0:	00 01       	.word	0x0100;	????	
 8d2:	cf 02       	.word	0x02cf;	????	
 8d4:	00 00       	.word	0x0000;	????	
 8d6:	e1 02       	.word	0x02e1;	????	
 8d8:	00 00       	.word	0x0000;	????	
 8da:	24 c8       	bic	@r8,	r4	
 8dc:	36 c8       	bic	@r8+,	r6	
 8de:	18 06       	.word	0x0618;	????	
 8e0:	00 00       	.word	0x0000;	????	
 8e2:	02 04       	.word	0x0402;	????	
 8e4:	05 28       	jnc	$+12     	;abs 0x8f0
 8e6:	00 00       	.word	0x0000;	????	
 8e8:	00 02       	.word	0x0200;	????	
 8ea:	02 07       	.word	0x0702;	????	
 8ec:	ab 00       	.word	0x00ab;	????	
 8ee:	00 00       	.word	0x0000;	????	
 8f0:	03 02       	.word	0x0203;	????	
 8f2:	05 69       	addc	r9,	r5	
 8f4:	6e 74       	subc.b	@r4,	r14	
 8f6:	00 02       	.word	0x0200;	????	
 8f8:	01 06       	.word	0x0601;	????	
 8fa:	88 00       	.word	0x0088;	????	
 8fc:	00 00       	.word	0x0000;	????	
 8fe:	02 08       	.word	0x0802;	????	
 900:	05 23       	jnz	$-500    	;abs 0x70c
 902:	00 00       	.word	0x0000;	????	
 904:	00 02       	.word	0x0200;	????	
 906:	01 08       	.word	0x0801;	????	
 908:	86 00       	.word	0x0086;	????	
 90a:	00 00       	.word	0x0000;	????	
 90c:	02 04       	.word	0x0402;	????	
 90e:	07 a6       	dadd	r6,	r7	
 910:	00 00       	.word	0x0000;	????	
 912:	00 02       	.word	0x0200;	????	
 914:	08 07       	.word	0x0708;	????	
 916:	a1 00       	.word	0x00a1;	????	
 918:	00 00       	.word	0x0000;	????	
 91a:	02 02       	.word	0x0202;	????	
 91c:	07 be       	bit	r14,	r7	
 91e:	00 00       	.word	0x0000;	????	
 920:	00 04       	.word	0x0400;	????	
 922:	02 66       	addc	r6,	r2	
 924:	00 00       	.word	0x0000;	????	
 926:	00 02       	.word	0x0200;	????	
 928:	01 06       	.word	0x0601;	????	
 92a:	8f 00       	.word	0x008f;	????	
 92c:	00 00       	.word	0x0000;	????	
 92e:	04 02       	.word	0x0204;	????	
 930:	73 00       	.word	0x0073;	????	
 932:	00 00       	.word	0x0000;	????	
 934:	05 66       	addc	r6,	r5	
 936:	00 00       	.word	0x0000;	????	
 938:	00 06       	.word	0x0600;	????	
 93a:	01 c8       	bic	r8,	r1	
 93c:	02 00       	.word	0x0002;	????	
 93e:	00 01       	.word	0x0100;	????	
 940:	24 01       	.word	0x0124;	????	
 942:	60 00       	.word	0x0060;	????	
 944:	00 00       	.word	0x0000;	????	
 946:	24 c8       	bic	@r8,	r4	
 948:	36 c8       	bic	@r8+,	r6	
 94a:	02 71       	subc	r1,	r2	
 94c:	02 07       	.word	0x0702;	????	
 94e:	70 00       	.word	0x0070;	????	
 950:	01 28       	jnc	$+4      	;abs 0x954
 952:	6d 00       	.word	0x006d;	????	
 954:	00 00       	.word	0x0000;	????	
 956:	48 03       	.word	0x0348;	????	
 958:	00 00       	.word	0x0000;	????	
 95a:	08 63       	adc	r8		
 95c:	68 00       	.word	0x0068;	????	
 95e:	01 28       	jnc	$+4      	;abs 0x962
 960:	73 00       	.word	0x0073;	????	
 962:	00 00       	.word	0x0000;	????	
 964:	01 5e       	add	r14,	r1	
 966:	00 00       	.word	0x0000;	????	
 968:	fa 00       	.word	0x00fa;	????	
 96a:	00 00       	.word	0x0000;	????	
 96c:	02 00       	.word	0x0002;	????	
 96e:	c7 03       	.word	0x03c7;	????	
 970:	00 00       	.word	0x0000;	????	
 972:	02 01       	.word	0x0102;	????	
 974:	43 00       	.word	0x0043;	????	
 976:	00 00       	.word	0x0000;	????	
 978:	01 2d       	jc	$+516    	;abs 0xb7c
 97a:	03 00       	.word	0x0003;	????	
 97c:	00 e1       	xor	r1,	r0	
 97e:	02 00       	.word	0x0002;	????	
 980:	00 36       	jge	$-1022   	;abs 0x582
 982:	c8 a0 c8 5c 	dadd.b	r0,	23752(r8);0x5cc8(r8)
 986:	06 00       	.word	0x0006;	????	
 988:	00 02       	.word	0x0200;	????	
 98a:	01 06       	.word	0x0601;	????	
 98c:	88 00       	.word	0x0088;	????	
 98e:	00 00       	.word	0x0000;	????	
 990:	03 02       	.word	0x0203;	????	
 992:	05 69       	addc	r9,	r5	
 994:	6e 74       	subc.b	@r4,	r14	
 996:	00 02       	.word	0x0200;	????	
 998:	04 05       	.word	0x0504;	????	
 99a:	28 00       	.word	0x0028;	????	
 99c:	00 00       	.word	0x0000;	????	
 99e:	02 08       	.word	0x0802;	????	
 9a0:	05 23       	jnz	$-500    	;abs 0x7ac
 9a2:	00 00       	.word	0x0000;	????	
 9a4:	00 02       	.word	0x0200;	????	
 9a6:	01 08       	.word	0x0801;	????	
 9a8:	86 00       	.word	0x0086;	????	
 9aa:	00 00       	.word	0x0000;	????	
 9ac:	02 02       	.word	0x0202;	????	
 9ae:	07 ab       	dadd	r11,	r7	
 9b0:	00 00       	.word	0x0000;	????	
 9b2:	00 02       	.word	0x0200;	????	
 9b4:	04 07       	.word	0x0704;	????	
 9b6:	a6 00       	.word	0x00a6;	????	
 9b8:	00 00       	.word	0x0000;	????	
 9ba:	02 08       	.word	0x0802;	????	
 9bc:	07 a1       	dadd	r1,	r7	
 9be:	00 00       	.word	0x0000;	????	
 9c0:	00 04       	.word	0x0400;	????	
 9c2:	1f 03       	.word	0x031f;	????	
 9c4:	00 00       	.word	0x0000;	????	
 9c6:	02 30       	jn	$+6      	;abs 0x9cc
 9c8:	3d 00       	.word	0x003d;	????	
 9ca:	00 00       	.word	0x0000;	????	
 9cc:	02 02       	.word	0x0202;	????	
 9ce:	07 be       	bit	r14,	r7	
 9d0:	00 00       	.word	0x0000;	????	
 9d2:	00 04       	.word	0x0400;	????	
 9d4:	3f 03       	.word	0x033f;	????	
 9d6:	00 00       	.word	0x0000;	????	
 9d8:	02 32       	jn	$-1018   	;abs 0x5de
 9da:	44 00       	.word	0x0044;	????	
 9dc:	00 00       	.word	0x0000;	????	
 9de:	02 01       	.word	0x0102;	????	
 9e0:	06 8f       	sub	r15,	r6	
 9e2:	00 00       	.word	0x0000;	????	
 9e4:	00 04       	.word	0x0400;	????	
 9e6:	13 03       	.word	0x0313;	????	
 9e8:	00 00       	.word	0x0000;	????	
 9ea:	03 d4       	.word	0xd403;	????	Illegal as 2-op instr
 9ec:	44 00       	.word	0x0044;	????	
 9ee:	00 00       	.word	0x0000;	????	
 9f0:	05 01       	.word	0x0105;	????	
 9f2:	26 03       	.word	0x0326;	????	
 9f4:	00 00       	.word	0x0000;	????	
 9f6:	01 39       	jl	$+516    	;abs 0xbfa
 9f8:	01 f5       	and	r5,	r1	
 9fa:	00 00       	.word	0x0000;	????	
 9fc:	00 36       	jge	$-1022   	;abs 0x5fe
 9fe:	c8 a0 c8 53 	dadd.b	r0,	21448(r8);0x53c8(r8)
 a02:	03 00       	.word	0x0003;	????	
 a04:	00 f5       	and	r5,	r0	
 a06:	00 00       	.word	0x0000;	????	
 a08:	00 06       	.word	0x0600;	????	
 a0a:	1a 03       	.word	0x031a;	????	
 a0c:	00 00       	.word	0x0000;	????	
 a0e:	01 3a       	jl	$-1020   	;abs 0x612
 a10:	f5 00       	.word	0x00f5;	????	
 a12:	00 00       	.word	0x0000;	????	
 a14:	01 5f       	add	r15,	r1	
 a16:	07 63       	adc	r7		
 a18:	30 00       	.word	0x0030;	????	
 a1a:	01 3b       	jl	$-508    	;abs 0x81e
 a1c:	28 00       	.word	0x0028;	????	
 a1e:	00 00       	.word	0x0000;	????	
 a20:	7f 03       	.word	0x037f;	????	
 a22:	00 00       	.word	0x0000;	????	
 a24:	08 45       	mov	r5,	r8	
 a26:	03 00       	.word	0x0003;	????	
 a28:	00 01       	.word	0x0100;	????	
 a2a:	3c 7d       	subc	@r13+,	r12	
 a2c:	00 00       	.word	0x0000;	????	
 a2e:	00 8a       	sub	r10,	r0	
 a30:	03 00       	.word	0x0003;	????	
 a32:	00 09       	.word	0x0900;	????	
 a34:	74 00       	.word	0x0074;	????	
 a36:	01 3f       	jmp	$-508    	;abs 0x83a
 a38:	7d 00       	.word	0x007d;	????	
 a3a:	00 00       	.word	0x0000;	????	
 a3c:	95 03       	.word	0x0395;	????	
 a3e:	00 00       	.word	0x0000;	????	
 a40:	09 63       	adc	r9		
 a42:	00 01       	.word	0x0100;	????	
 a44:	41 6b       	addc.b	r11,	r1	
 a46:	00 00       	.word	0x0000;	????	
 a48:	00 e7       	xor	r7,	r0	
 a4a:	03 00       	.word	0x0003;	????	
 a4c:	00 09       	.word	0x0900;	????	
 a4e:	64 73       	subc.b	#2,	r4	;r3 As==10
 a50:	74 00       	.word	0x0074;	????	
 a52:	01 43       	clr	r1		
 a54:	f7 00       	.word	0x00f7;	????	
 a56:	00 00       	.word	0x0000;	????	
 a58:	f2 03       	.word	0x03f2;	????	
 a5a:	00 00       	.word	0x0000;	????	
 a5c:	00 0a       	.word	0x0a00;	????	
 a5e:	02 0b       	.word	0x0b02;	????	
 a60:	02 59       	add	r9,	r2	
 a62:	00 00       	.word	0x0000;	????	
 a64:	00 00       	.word	0x0000;	????	
 a66:	f5 00       	.word	0x00f5;	????	
 a68:	00 00       	.word	0x0000;	????	
 a6a:	02 00       	.word	0x0002;	????	
 a6c:	63 04       	.word	0x0463;	????	
 a6e:	00 00       	.word	0x0000;	????	
 a70:	02 01       	.word	0x0102;	????	
 a72:	43 00       	.word	0x0043;	????	
 a74:	00 00       	.word	0x0000;	????	
 a76:	01 59       	add	r9,	r1	
 a78:	03 00       	.word	0x0003;	????	
 a7a:	00 e1       	xor	r1,	r0	
 a7c:	02 00       	.word	0x0002;	????	
 a7e:	00 a0       	dadd	r0,	r0	
 a80:	c8 e0 c8 44 	xor.b	r0,	17608(r8);0x44c8(r8)
 a84:	07 00       	.word	0x0007;	????	
 a86:	00 02       	.word	0x0200;	????	
 a88:	04 05       	.word	0x0504;	????	
 a8a:	28 00       	.word	0x0028;	????	
 a8c:	00 00       	.word	0x0000;	????	
 a8e:	02 02       	.word	0x0202;	????	
 a90:	07 ab       	dadd	r11,	r7	
 a92:	00 00       	.word	0x0000;	????	
 a94:	00 03       	.word	0x0300;	????	
 a96:	02 05       	.word	0x0502;	????	
 a98:	69 6e       	addc.b	@r14,	r9	
 a9a:	74 00       	.word	0x0074;	????	
 a9c:	02 01       	.word	0x0102;	????	
 a9e:	06 88       	sub	r8,	r6	
 aa0:	00 00       	.word	0x0000;	????	
 aa2:	00 02       	.word	0x0200;	????	
 aa4:	08 05       	.word	0x0508;	????	
 aa6:	23 00       	.word	0x0023;	????	
 aa8:	00 00       	.word	0x0000;	????	
 aaa:	02 01       	.word	0x0102;	????	
 aac:	08 86       	sub	r6,	r8	
 aae:	00 00       	.word	0x0000;	????	
 ab0:	00 02       	.word	0x0200;	????	
 ab2:	04 07       	.word	0x0704;	????	
 ab4:	a6 00       	.word	0x00a6;	????	
 ab6:	00 00       	.word	0x0000;	????	
 ab8:	02 08       	.word	0x0802;	????	
 aba:	07 a1       	dadd	r1,	r7	
 abc:	00 00       	.word	0x0000;	????	
 abe:	00 02       	.word	0x0200;	????	
 ac0:	02 07       	.word	0x0702;	????	
 ac2:	be 00       	.word	0x00be;	????	
 ac4:	00 00       	.word	0x0000;	????	
 ac6:	04 02       	.word	0x0204;	????	
 ac8:	66 00       	.word	0x0066;	????	
 aca:	00 00       	.word	0x0000;	????	
 acc:	02 01       	.word	0x0102;	????	
 ace:	06 8f       	sub	r15,	r6	
 ad0:	00 00       	.word	0x0000;	????	
 ad2:	00 04       	.word	0x0400;	????	
 ad4:	02 73       	sbc	r2		
 ad6:	00 00       	.word	0x0000;	????	
 ad8:	00 05       	.word	0x0500;	????	
 ada:	66 00       	.word	0x0066;	????	
 adc:	00 00       	.word	0x0000;	????	
 ade:	06 01       	.word	0x0106;	????	
 ae0:	4c 03       	.word	0x034c;	????	
 ae2:	00 00       	.word	0x0000;	????	
 ae4:	01 2d       	jc	$+516    	;abs 0xce8
 ae6:	01 60       	addc	r0,	r1	
 ae8:	00 00       	.word	0x0000;	????	
 aea:	00 a0       	dadd	r0,	r0	
 aec:	c8 e0 c8 2e 	xor.b	r0,	11976(r8);0x2ec8(r8)
 af0:	04 00       	.word	0x0004;	????	
 af2:	00 f2       	and	r2,	r0	
 af4:	00 00       	.word	0x0000;	????	
 af6:	00 07       	.word	0x0700;	????	
 af8:	6b 03       	.word	0x036b;	????	
 afa:	00 00       	.word	0x0000;	????	
 afc:	01 2e       	jc	$-1020   	;abs 0x700
 afe:	f2 00       	.word	0x00f2;	????	
 b00:	00 00       	.word	0x0000;	????	
 b02:	52 04       	.word	0x0452;	????	
 b04:	00 00       	.word	0x0000;	????	
 b06:	08 73       	sbc	r8		
 b08:	03 00       	.word	0x0003;	????	
 b0a:	00 01       	.word	0x0100;	????	
 b0c:	2f 6d       	addc	@r13,	r15	
 b0e:	00 00       	.word	0x0000;	????	
 b10:	00 01       	.word	0x0100;	????	
 b12:	5e 09       	.word	0x095e;	????	
 b14:	73 00       	.word	0x0073;	????	
 b16:	01 31       	jn	$+516    	;abs 0xd1a
 b18:	60 00       	.word	0x0060;	????	
 b1a:	00 00       	.word	0x0000;	????	
 b1c:	64 04       	.word	0x0464;	????	
 b1e:	00 00       	.word	0x0000;	????	
 b20:	0a 53       	add	#0,	r10	;r3 As==00
 b22:	03 00       	.word	0x0003;	????	
 b24:	00 01       	.word	0x0100;	????	
 b26:	32 6d       	addc	@r13+,	r2	
 b28:	00 00       	.word	0x0000;	????	
 b2a:	00 8e       	sub	r14,	r0	
 b2c:	04 00       	.word	0x0004;	????	
 b2e:	00 09       	.word	0x0900;	????	
 b30:	63 00       	.word	0x0063;	????	
 b32:	01 33       	jn	$-508    	;abs 0x936
 b34:	2f 00       	.word	0x002f;	????	
 b36:	00 00       	.word	0x0000;	????	
 b38:	b0 04       	.word	0x04b0;	????	
 b3a:	00 00       	.word	0x0000;	????	
 b3c:	09 73       	sbc	r9		
 b3e:	63 00       	.word	0x0063;	????	
 b40:	01 33       	jn	$-508    	;abs 0x944
 b42:	2f 00       	.word	0x002f;	????	
 b44:	00 00       	.word	0x0000;	????	
 b46:	bb 04       	.word	0x04bb;	????	
 b48:	00 00       	.word	0x0000;	????	
 b4a:	0b 74       	subc	r4,	r11	
 b4c:	6f 6b       	addc.b	@r11,	r15	
 b4e:	00 01       	.word	0x0100;	????	
 b50:	34 60 00 00 	addc	#0,	r4	;#0x0000
 b54:	00 01       	.word	0x0100;	????	
 b56:	5f 00       	.word	0x005f;	????	
 b58:	04 02       	.word	0x0204;	????	
 b5a:	60 00       	.word	0x0060;	????	
 b5c:	00 00       	.word	0x0000;	????	
 b5e:	00 b0       	bit	r0,	r0	
 b60:	00 00       	.word	0x0000;	????	
 b62:	00 02       	.word	0x0200;	????	
 b64:	00 01       	.word	0x0100;	????	
 b66:	05 00       	.word	0x0005;	????	
 b68:	00 02       	.word	0x0200;	????	
 b6a:	01 43       	clr	r1		
 b6c:	00 00       	.word	0x0000;	????	
 b6e:	00 01       	.word	0x0100;	????	
 b70:	83 03       	.word	0x0383;	????	
 b72:	00 00       	.word	0x0000;	????	
 b74:	e1 02       	.word	0x02e1;	????	
 b76:	00 00       	.word	0x0000;	????	
 b78:	e0 c8 6a c9 	bic.b	@r8,	-13974(r0);PC rel. 0xd4e4
 b7c:	93 07       	.word	0x0793;	????	
 b7e:	00 00       	.word	0x0000;	????	
 b80:	02 04       	.word	0x0402;	????	
 b82:	05 28       	jnc	$+12     	;abs 0xb8e
 b84:	00 00       	.word	0x0000;	????	
 b86:	00 02       	.word	0x0200;	????	
 b88:	02 07       	.word	0x0702;	????	
 b8a:	ab 00       	.word	0x00ab;	????	
 b8c:	00 00       	.word	0x0000;	????	
 b8e:	03 02       	.word	0x0203;	????	
 b90:	05 69       	addc	r9,	r5	
 b92:	6e 74       	subc.b	@r4,	r14	
 b94:	00 02       	.word	0x0200;	????	
 b96:	01 06       	.word	0x0601;	????	
 b98:	88 00       	.word	0x0088;	????	
 b9a:	00 00       	.word	0x0000;	????	
 b9c:	02 08       	.word	0x0802;	????	
 b9e:	05 23       	jnz	$-500    	;abs 0x9aa
 ba0:	00 00       	.word	0x0000;	????	
 ba2:	00 02       	.word	0x0200;	????	
 ba4:	01 08       	.word	0x0801;	????	
 ba6:	86 00       	.word	0x0086;	????	
 ba8:	00 00       	.word	0x0000;	????	
 baa:	02 04       	.word	0x0402;	????	
 bac:	07 a6       	dadd	r6,	r7	
 bae:	00 00       	.word	0x0000;	????	
 bb0:	00 02       	.word	0x0200;	????	
 bb2:	08 07       	.word	0x0708;	????	
 bb4:	a1 00       	.word	0x00a1;	????	
 bb6:	00 00       	.word	0x0000;	????	
 bb8:	02 02       	.word	0x0202;	????	
 bba:	07 be       	bit	r14,	r7	
 bbc:	00 00       	.word	0x0000;	????	
 bbe:	00 02       	.word	0x0200;	????	
 bc0:	01 06       	.word	0x0601;	????	
 bc2:	8f 00       	.word	0x008f;	????	
 bc4:	00 00       	.word	0x0000;	????	
 bc6:	04 02       	.word	0x0204;	????	
 bc8:	6d 00       	.word	0x006d;	????	
 bca:	00 00       	.word	0x0000;	????	
 bcc:	05 60       	addc	r0,	r5	
 bce:	00 00       	.word	0x0000;	????	
 bd0:	00 06       	.word	0x0600;	????	
 bd2:	01 7e       	subc	r14,	r1	
 bd4:	03 00       	.word	0x0003;	????	
 bd6:	00 01       	.word	0x0100;	????	
 bd8:	06 01       	.word	0x0106;	????	
 bda:	2f 00       	.word	0x002f;	????	
 bdc:	00 00       	.word	0x0000;	????	
 bde:	e0 c8 6a c9 	bic.b	@r8,	-13974(r0);PC rel. 0xd54a
 be2:	c6 04       	.word	0x04c6;	????	
 be4:	00 00       	.word	0x0000;	????	
 be6:	07 70       	subc	r0,	r7	
 be8:	00 01       	.word	0x0100;	????	
 bea:	06 67       	addc	r7,	r6	
 bec:	00 00       	.word	0x0000;	????	
 bee:	00 da       	bis	r10,	r0	
 bf0:	04 00       	.word	0x0004;	????	
 bf2:	00 08       	.word	0x0800;	????	
 bf4:	79 03       	.word	0x0379;	????	
 bf6:	00 00       	.word	0x0000;	????	
 bf8:	01 08       	.word	0x0801;	????	
 bfa:	2f 00       	.word	0x002f;	????	
 bfc:	00 00       	.word	0x0000;	????	
 bfe:	fc 04       	.word	0x04fc;	????	
 c00:	00 00       	.word	0x0000;	????	
 c02:	09 72       	subc	r2,	r9	
 c04:	65 73       	subc.b	#2,	r5	;r3 As==10
 c06:	00 01       	.word	0x0100;	????	
 c08:	09 2f       	jc	$-492    	;abs 0xa1c
 c0a:	00 00       	.word	0x0000;	????	
 c0c:	00 1f       	.word	0x1f00;	????	
 c0e:	05 00       	.word	0x0005;	????	
 c10:	00 00       	.word	0x0000;	????	
 c12:	00 6d       	addc	r13,	r0	
 c14:	00 00       	.word	0x0000;	????	
 c16:	00 02       	.word	0x0200;	????	
 c18:	00 7f       	subc	r15,	r0	
 c1a:	05 00       	.word	0x0005;	????	
 c1c:	00 02       	.word	0x0200;	????	
 c1e:	01 01       	.word	0x0101;	????	
 c20:	08 00       	.word	0x0008;	????	
 c22:	00 00       	.word	0x0000;	????	
 c24:	c0 0c       	.word	0x0cc0;	????	
 c26:	c0 2e       	jc	$-638    	;abs 0x9a8
 c28:	2e 2f       	jc	$-418    	;abs 0xa86
 c2a:	2e 2e       	jc	$-930    	;abs 0x888
 c2c:	2f 2e       	jc	$-928    	;abs 0x88c
 c2e:	2e 2f       	jc	$-418    	;abs 0xa8c
 c30:	67 63       	addc.b	#2,	r7	;r3 As==10
 c32:	63 2f       	jc	$-312    	;abs 0xafa
 c34:	67 63       	addc.b	#2,	r7	;r3 As==10
 c36:	63 2f       	jc	$-312    	;abs 0xafe
 c38:	63 6f       	.word	0x6f63;	????	Illegal as 2-op instr
 c3a:	6e 66       	addc.b	@r6,	r14	
 c3c:	69 67       	addc.b	@r7,	r9	
 c3e:	2f 6d       	addc	@r13,	r15	
 c40:	73 70       	.word	0x7073;	????	Illegal as 2-op instr
 c42:	34 33       	jn	$-406    	;abs 0xaac
 c44:	30 2f       	jc	$-414    	;abs 0xaa6
 c46:	63 72       	.word	0x7263;	????	Illegal as 2-op instr
 c48:	74 30       	jn	$+234    	;abs 0xd32
 c4a:	2e 53       	incd	r14		
 c4c:	00 2f       	jc	$-510    	;abs 0xa4e
 c4e:	68 6f       	addc.b	@r15,	r8	
 c50:	6d 65       	addc.b	@r5,	r13	
 c52:	2f 72       	subc	#4,	r15	;r2 As==10
 c54:	6f 62       	addc.b	#4,	r15	;r2 As==10
 c56:	65 72       	subc.b	#4,	r5	;r2 As==10
 c58:	74 69       	addc.b	@r9+,	r4	
 c5a:	6e 61       	addc.b	@r1,	r14	
 c5c:	6e 74       	subc.b	@r4,	r14	
 c5e:	2f 6d       	addc	@r13,	r15	
 c60:	73 70       	.word	0x7073;	????	Illegal as 2-op instr
 c62:	67 63       	addc.b	#2,	r7	;r3 As==10
 c64:	63 2f       	jc	$-312    	;abs 0xb2c
 c66:	42 55       	add.b	r5,	r2	
 c68:	49 4c       	mov.b	r12,	r9	
 c6a:	44 2f       	jc	$-374    	;abs 0xaf4
 c6c:	67 63       	addc.b	#2,	r7	;r3 As==10
 c6e:	63 2f       	jc	$-312    	;abs 0xb36
 c70:	67 63       	addc.b	#2,	r7	;r3 As==10
 c72:	63 00       	.word	0x0063;	????	
 c74:	47 4e       	mov.b	r14,	r7	
 c76:	55 20       	jnz	$+172    	;abs 0xd22
 c78:	41 53       	add.b	#0,	r1	;r3 As==00
 c7a:	20 32       	jn	$-958    	;abs 0x8bc
 c7c:	2e 32       	jn	$-930    	;abs 0x8da
 c7e:	31 2e       	jc	$-924    	;abs 0x8e2
 c80:	31 00       	.word	0x0031;	????	
 c82:	01 80       	sub	r0,	r1	
 c84:	6d 00       	.word	0x006d;	????	
 c86:	00 00       	.word	0x0000;	????	
 c88:	02 00       	.word	0x0002;	????	
 c8a:	93 05       	.word	0x0593;	????	
 c8c:	00 00       	.word	0x0000;	????	
 c8e:	02 01       	.word	0x0102;	????	
 c90:	57 08       	.word	0x0857;	????	
 c92:	00 00       	.word	0x0000;	????	
 c94:	0c c0       	bic	r0,	r12	
 c96:	10 c0 2e 2e 	bic	11822(r0),r0	;PC rel. 0x3ac6
 c9a:	2f 2e       	jc	$-928    	;abs 0x8fa
 c9c:	2e 2f       	jc	$-418    	;abs 0xafa
 c9e:	2e 2e       	jc	$-930    	;abs 0x8fc
 ca0:	2f 67       	addc	@r7,	r15	
 ca2:	63 63       	.word	0x6363;	????	Illegal as 2-op instr
 ca4:	2f 67       	addc	@r7,	r15	
 ca6:	63 63       	.word	0x6363;	????	Illegal as 2-op instr
 ca8:	2f 63       	addc	#2,	r15	;r3 As==10
 caa:	6f 6e       	addc.b	@r14,	r15	
 cac:	66 69       	addc.b	@r9,	r6	
 cae:	67 2f       	jc	$-304    	;abs 0xb7e
 cb0:	6d 73       	subc.b	#2,	r13	;r3 As==10
 cb2:	70 34       	jge	$+226    	;abs 0xd94
 cb4:	33 30       	jn	$+104    	;abs 0xd1c
 cb6:	2f 63       	addc	#2,	r15	;r3 As==10
 cb8:	72 74       	subc.b	@r4+,	r2	
 cba:	30 2e       	jc	$-926    	;abs 0x91c
 cbc:	53 00       	.word	0x0053;	????	
 cbe:	2f 68       	addc	@r8,	r15	
 cc0:	6f 6d       	addc.b	@r13,	r15	
 cc2:	65 2f       	jc	$-308    	;abs 0xb8e
 cc4:	72 6f       	addc.b	@r15+,	r2	
 cc6:	62 65       	addc.b	@r5,	r2	
 cc8:	72 74       	subc.b	@r4+,	r2	
 cca:	69 6e       	addc.b	@r14,	r9	
 ccc:	61 6e       	addc.b	@r14,	r1	
 cce:	74 2f       	jc	$-278    	;abs 0xbb8
 cd0:	6d 73       	subc.b	#2,	r13	;r3 As==10
 cd2:	70 67       	addc.b	@r7+,	r0	
 cd4:	63 63       	.word	0x6363;	????	Illegal as 2-op instr
 cd6:	2f 42       	mov	#4,	r15	;r2 As==10
 cd8:	55 49 4c 44 	mov.b	17484(r9),r5	;0x444c(r9)
 cdc:	2f 67       	addc	@r7,	r15	
 cde:	63 63       	.word	0x6363;	????	Illegal as 2-op instr
 ce0:	2f 67       	addc	@r7,	r15	
 ce2:	63 63       	.word	0x6363;	????	Illegal as 2-op instr
 ce4:	00 47       	br	r7		
 ce6:	4e 55       	add.b	r5,	r14	
 ce8:	20 41       	br	@r1		
 cea:	53 20       	jnz	$+168    	;abs 0xd92
 cec:	32 2e       	jc	$-922    	;abs 0x952
 cee:	32 31       	jn	$+614    	;abs 0xf54
 cf0:	2e 31       	jn	$+606    	;abs 0xf4e
 cf2:	00 01       	.word	0x0100;	????	
 cf4:	80 6d 00 00 	addc	r13,	0(r0)	;PC rel. 0x0cf6
 cf8:	00 02       	.word	0x0200;	????	
 cfa:	00 a7       	dadd	r7,	r0	
 cfc:	05 00       	.word	0x0005;	????	
 cfe:	00 02       	.word	0x0200;	????	
 d00:	01 ab       	dadd	r11,	r1	
 d02:	08 00       	.word	0x0008;	????	
 d04:	00 10       	rrc	r0		
 d06:	c0 28       	jnc	$+386    	;abs 0xe88
 d08:	c0 2e       	jc	$-638    	;abs 0xa8a
 d0a:	2e 2f       	jc	$-418    	;abs 0xb68
 d0c:	2e 2e       	jc	$-930    	;abs 0x96a
 d0e:	2f 2e       	jc	$-928    	;abs 0x96e
 d10:	2e 2f       	jc	$-418    	;abs 0xb6e
 d12:	67 63       	addc.b	#2,	r7	;r3 As==10
 d14:	63 2f       	jc	$-312    	;abs 0xbdc
 d16:	67 63       	addc.b	#2,	r7	;r3 As==10
 d18:	63 2f       	jc	$-312    	;abs 0xbe0
 d1a:	63 6f       	.word	0x6f63;	????	Illegal as 2-op instr
 d1c:	6e 66       	addc.b	@r6,	r14	
 d1e:	69 67       	addc.b	@r7,	r9	
 d20:	2f 6d       	addc	@r13,	r15	
 d22:	73 70       	.word	0x7073;	????	Illegal as 2-op instr
 d24:	34 33       	jn	$-406    	;abs 0xb8e
 d26:	30 2f       	jc	$-414    	;abs 0xb88
 d28:	63 72       	.word	0x7263;	????	Illegal as 2-op instr
 d2a:	74 30       	jn	$+234    	;abs 0xe14
 d2c:	2e 53       	incd	r14		
 d2e:	00 2f       	jc	$-510    	;abs 0xb30
 d30:	68 6f       	addc.b	@r15,	r8	
 d32:	6d 65       	addc.b	@r5,	r13	
 d34:	2f 72       	subc	#4,	r15	;r2 As==10
 d36:	6f 62       	addc.b	#4,	r15	;r2 As==10
 d38:	65 72       	subc.b	#4,	r5	;r2 As==10
 d3a:	74 69       	addc.b	@r9+,	r4	
 d3c:	6e 61       	addc.b	@r1,	r14	
 d3e:	6e 74       	subc.b	@r4,	r14	
 d40:	2f 6d       	addc	@r13,	r15	
 d42:	73 70       	.word	0x7073;	????	Illegal as 2-op instr
 d44:	67 63       	addc.b	#2,	r7	;r3 As==10
 d46:	63 2f       	jc	$-312    	;abs 0xc0e
 d48:	42 55       	add.b	r5,	r2	
 d4a:	49 4c       	mov.b	r12,	r9	
 d4c:	44 2f       	jc	$-374    	;abs 0xbd6
 d4e:	67 63       	addc.b	#2,	r7	;r3 As==10
 d50:	63 2f       	jc	$-312    	;abs 0xc18
 d52:	67 63       	addc.b	#2,	r7	;r3 As==10
 d54:	63 00       	.word	0x0063;	????	
 d56:	47 4e       	mov.b	r14,	r7	
 d58:	55 20       	jnz	$+172    	;abs 0xe04
 d5a:	41 53       	add.b	#0,	r1	;r3 As==00
 d5c:	20 32       	jn	$-958    	;abs 0x99e
 d5e:	2e 32       	jn	$-930    	;abs 0x9bc
 d60:	31 2e       	jc	$-924    	;abs 0x9c4
 d62:	31 00       	.word	0x0031;	????	
 d64:	01 80       	sub	r0,	r1	
 d66:	6d 00       	.word	0x006d;	????	
 d68:	00 00       	.word	0x0000;	????	
 d6a:	02 00       	.word	0x0002;	????	
 d6c:	bb 05       	.word	0x05bb;	????	
 d6e:	00 00       	.word	0x0000;	????	
 d70:	02 01       	.word	0x0102;	????	
 d72:	05 09       	.word	0x0905;	????	
 d74:	00 00       	.word	0x0000;	????	
 d76:	28 c0       	bic	@r0,	r8	
 d78:	3e c0 2e 2e 	bic	#11822,	r14	;#0x2e2e
 d7c:	2f 2e       	jc	$-928    	;abs 0x9dc
 d7e:	2e 2f       	jc	$-418    	;abs 0xbdc
 d80:	2e 2e       	jc	$-930    	;abs 0x9de
 d82:	2f 67       	addc	@r7,	r15	
 d84:	63 63       	.word	0x6363;	????	Illegal as 2-op instr
 d86:	2f 67       	addc	@r7,	r15	
 d88:	63 63       	.word	0x6363;	????	Illegal as 2-op instr
 d8a:	2f 63       	addc	#2,	r15	;r3 As==10
 d8c:	6f 6e       	addc.b	@r14,	r15	
 d8e:	66 69       	addc.b	@r9,	r6	
 d90:	67 2f       	jc	$-304    	;abs 0xc60
 d92:	6d 73       	subc.b	#2,	r13	;r3 As==10
 d94:	70 34       	jge	$+226    	;abs 0xe76
 d96:	33 30       	jn	$+104    	;abs 0xdfe
 d98:	2f 63       	addc	#2,	r15	;r3 As==10
 d9a:	72 74       	subc.b	@r4+,	r2	
 d9c:	30 2e       	jc	$-926    	;abs 0x9fe
 d9e:	53 00       	.word	0x0053;	????	
 da0:	2f 68       	addc	@r8,	r15	
 da2:	6f 6d       	addc.b	@r13,	r15	
 da4:	65 2f       	jc	$-308    	;abs 0xc70
 da6:	72 6f       	addc.b	@r15+,	r2	
 da8:	62 65       	addc.b	@r5,	r2	
 daa:	72 74       	subc.b	@r4+,	r2	
 dac:	69 6e       	addc.b	@r14,	r9	
 dae:	61 6e       	addc.b	@r14,	r1	
 db0:	74 2f       	jc	$-278    	;abs 0xc9a
 db2:	6d 73       	subc.b	#2,	r13	;r3 As==10
 db4:	70 67       	addc.b	@r7+,	r0	
 db6:	63 63       	.word	0x6363;	????	Illegal as 2-op instr
 db8:	2f 42       	mov	#4,	r15	;r2 As==10
 dba:	55 49 4c 44 	mov.b	17484(r9),r5	;0x444c(r9)
 dbe:	2f 67       	addc	@r7,	r15	
 dc0:	63 63       	.word	0x6363;	????	Illegal as 2-op instr
 dc2:	2f 67       	addc	@r7,	r15	
 dc4:	63 63       	.word	0x6363;	????	Illegal as 2-op instr
 dc6:	00 47       	br	r7		
 dc8:	4e 55       	add.b	r5,	r14	
 dca:	20 41       	br	@r1		
 dcc:	53 20       	jnz	$+168    	;abs 0xe74
 dce:	32 2e       	jc	$-922    	;abs 0xa34
 dd0:	32 31       	jn	$+614    	;abs 0x1036
 dd2:	2e 31       	jn	$+606    	;abs 0x1030
 dd4:	00 01       	.word	0x0100;	????	
 dd6:	80 6d 00 00 	addc	r13,	0(r0)	;PC rel. 0x0dd8
 dda:	00 02       	.word	0x0200;	????	
 ddc:	00 cf       	bic	r15,	r0	
 dde:	05 00       	.word	0x0005;	????	
 de0:	00 02       	.word	0x0200;	????	
 de2:	01 5f       	add	r15,	r1	
 de4:	09 00       	.word	0x0009;	????	
 de6:	00 24       	jz	$+2      	;abs 0xde8
 de8:	c3 2a       	jnc	$-632    	;abs 0xb70
 dea:	c3 2e       	jc	$-632    	;abs 0xb72
 dec:	2e 2f       	jc	$-418    	;abs 0xc4a
 dee:	2e 2e       	jc	$-930    	;abs 0xa4c
 df0:	2f 2e       	jc	$-928    	;abs 0xa50
 df2:	2e 2f       	jc	$-418    	;abs 0xc50
 df4:	67 63       	addc.b	#2,	r7	;r3 As==10
 df6:	63 2f       	jc	$-312    	;abs 0xcbe
 df8:	67 63       	addc.b	#2,	r7	;r3 As==10
 dfa:	63 2f       	jc	$-312    	;abs 0xcc2
 dfc:	63 6f       	.word	0x6f63;	????	Illegal as 2-op instr
 dfe:	6e 66       	addc.b	@r6,	r14	
 e00:	69 67       	addc.b	@r7,	r9	
 e02:	2f 6d       	addc	@r13,	r15	
 e04:	73 70       	.word	0x7073;	????	Illegal as 2-op instr
 e06:	34 33       	jn	$-406    	;abs 0xc70
 e08:	30 2f       	jc	$-414    	;abs 0xc6a
 e0a:	63 72       	.word	0x7263;	????	Illegal as 2-op instr
 e0c:	74 30       	jn	$+234    	;abs 0xef6
 e0e:	2e 53       	incd	r14		
 e10:	00 2f       	jc	$-510    	;abs 0xc12
 e12:	68 6f       	addc.b	@r15,	r8	
 e14:	6d 65       	addc.b	@r5,	r13	
 e16:	2f 72       	subc	#4,	r15	;r2 As==10
 e18:	6f 62       	addc.b	#4,	r15	;r2 As==10
 e1a:	65 72       	subc.b	#4,	r5	;r2 As==10
 e1c:	74 69       	addc.b	@r9+,	r4	
 e1e:	6e 61       	addc.b	@r1,	r14	
 e20:	6e 74       	subc.b	@r4,	r14	
 e22:	2f 6d       	addc	@r13,	r15	
 e24:	73 70       	.word	0x7073;	????	Illegal as 2-op instr
 e26:	67 63       	addc.b	#2,	r7	;r3 As==10
 e28:	63 2f       	jc	$-312    	;abs 0xcf0
 e2a:	42 55       	add.b	r5,	r2	
 e2c:	49 4c       	mov.b	r12,	r9	
 e2e:	44 2f       	jc	$-374    	;abs 0xcb8
 e30:	67 63       	addc.b	#2,	r7	;r3 As==10
 e32:	63 2f       	jc	$-312    	;abs 0xcfa
 e34:	67 63       	addc.b	#2,	r7	;r3 As==10
 e36:	63 00       	.word	0x0063;	????	
 e38:	47 4e       	mov.b	r14,	r7	
 e3a:	55 20       	jnz	$+172    	;abs 0xee6
 e3c:	41 53       	add.b	#0,	r1	;r3 As==00
 e3e:	20 32       	jn	$-958    	;abs 0xa80
 e40:	2e 32       	jn	$-930    	;abs 0xa9e
 e42:	31 2e       	jc	$-924    	;abs 0xaa6
 e44:	31 00       	.word	0x0031;	????	
 e46:	01 80       	sub	r0,	r1	
 e48:	6d 00       	.word	0x006d;	????	
 e4a:	00 00       	.word	0x0000;	????	
 e4c:	02 00       	.word	0x0002;	????	
 e4e:	e3 05       	.word	0x05e3;	????	
 e50:	00 00       	.word	0x0000;	????	
 e52:	02 01       	.word	0x0102;	????	
 e54:	b4 09       	.word	0x09b4;	????	
 e56:	00 00       	.word	0x0000;	????	
 e58:	6a c9       	bic.b	@r9,	r10	
 e5a:	6c c9       	bic.b	@r9,	r12	
 e5c:	2e 2e       	jc	$-930    	;abs 0xaba
 e5e:	2f 2e       	jc	$-928    	;abs 0xabe
 e60:	2e 2f       	jc	$-418    	;abs 0xcbe
 e62:	2e 2e       	jc	$-930    	;abs 0xac0
 e64:	2f 67       	addc	@r7,	r15	
 e66:	63 63       	.word	0x6363;	????	Illegal as 2-op instr
 e68:	2f 67       	addc	@r7,	r15	
 e6a:	63 63       	.word	0x6363;	????	Illegal as 2-op instr
 e6c:	2f 63       	addc	#2,	r15	;r3 As==10
 e6e:	6f 6e       	addc.b	@r14,	r15	
 e70:	66 69       	addc.b	@r9,	r6	
 e72:	67 2f       	jc	$-304    	;abs 0xd42
 e74:	6d 73       	subc.b	#2,	r13	;r3 As==10
 e76:	70 34       	jge	$+226    	;abs 0xf58
 e78:	33 30       	jn	$+104    	;abs 0xee0
 e7a:	2f 63       	addc	#2,	r15	;r3 As==10
 e7c:	72 74       	subc.b	@r4+,	r2	
 e7e:	30 2e       	jc	$-926    	;abs 0xae0
 e80:	53 00       	.word	0x0053;	????	
 e82:	2f 68       	addc	@r8,	r15	
 e84:	6f 6d       	addc.b	@r13,	r15	
 e86:	65 2f       	jc	$-308    	;abs 0xd52
 e88:	72 6f       	addc.b	@r15+,	r2	
 e8a:	62 65       	addc.b	@r5,	r2	
 e8c:	72 74       	subc.b	@r4+,	r2	
 e8e:	69 6e       	addc.b	@r14,	r9	
 e90:	61 6e       	addc.b	@r14,	r1	
 e92:	74 2f       	jc	$-278    	;abs 0xd7c
 e94:	6d 73       	subc.b	#2,	r13	;r3 As==10
 e96:	70 67       	addc.b	@r7+,	r0	
 e98:	63 63       	.word	0x6363;	????	Illegal as 2-op instr
 e9a:	2f 42       	mov	#4,	r15	;r2 As==10
 e9c:	55 49 4c 44 	mov.b	17484(r9),r5	;0x444c(r9)
 ea0:	2f 67       	addc	@r7,	r15	
 ea2:	63 63       	.word	0x6363;	????	Illegal as 2-op instr
 ea4:	2f 67       	addc	@r7,	r15	
 ea6:	63 63       	.word	0x6363;	????	Illegal as 2-op instr
 ea8:	00 47       	br	r7		
 eaa:	4e 55       	add.b	r5,	r14	
 eac:	20 41       	br	@r1		
 eae:	53 20       	jnz	$+168    	;abs 0xf56
 eb0:	32 2e       	jc	$-922    	;abs 0xb16
 eb2:	32 31       	jn	$+614    	;abs 0x1118
 eb4:	2e 31       	jn	$+606    	;abs 0x1112
 eb6:	00 01       	.word	0x0100;	????	
 eb8:	80 00       	Address 0x0000000000000eb8 is out of bounds.
Address 0x0000000000000eba is out of bounds.
and.b	@r15+,	-1(r15)	;0xffff(r15)

Disassembly of section .debug_abbrev:

00000000 <.debug_abbrev>:
   0:	01 11       	rra	r1		
   2:	01 25       	jz	$+516    	;abs 0x206
   4:	0e 13       	reti			;return from interupt
   6:	0b 03       	.word	0x030b;	????	
   8:	0e 1b       	.word	0x1b0e;	????	
   a:	0e 11       	rra	r14		
   c:	01 52       	add	r2,	r1	
   e:	01 55       	add	r5,	r1	
  10:	06 10       	rrc	r6		
  12:	06 00       	.word	0x0006;	????	
  14:	00 02       	.word	0x0200;	????	
  16:	24 00       	.word	0x0024;	????	
  18:	0b 0b       	.word	0x0b0b;	????	
  1a:	3e 0b       	.word	0x0b3e;	????	
  1c:	03 0e       	.word	0x0e03;	????	
  1e:	00 00       	.word	0x0000;	????	
  20:	03 24       	jz	$+8      	;abs 0x28
  22:	00 0b       	.word	0x0b00;	????	
  24:	0b 3e       	jmp	$-1000   	;abs 0xfc3c
  26:	0b 03       	.word	0x030b;	????	
  28:	08 00       	.word	0x0008;	????	
  2a:	00 04       	.word	0x0400;	????	
  2c:	0f 00       	.word	0x000f;	????	
  2e:	0b 0b       	.word	0x0b0b;	????	
  30:	49 13       	.word	0x1349;	????	
  32:	00 00       	.word	0x0000;	????	
  34:	05 2e       	jc	$-1012   	;abs 0xfc40
  36:	01 3f       	jmp	$-508    	;abs 0xfe3a
  38:	0c 03       	.word	0x030c;	????	
  3a:	0e 3a       	jl	$-994    	;abs 0xfc58
  3c:	0b 3b       	jl	$-488    	;abs 0xfe54
  3e:	0b 27       	jz	$-488    	;abs 0xfe56
  40:	0c 49       	mov	r9,	r12	
  42:	13 11       	rra	#1		;r3 As==01
  44:	01 12       	push	r1		
  46:	01 40       	mov	r0,	r1	
  48:	06 01       	.word	0x0106;	????	
  4a:	13 00       	.word	0x0013;	????	
  4c:	00 06       	.word	0x0600;	????	
  4e:	34 00       	.word	0x0034;	????	
  50:	03 0e       	.word	0x0e03;	????	
  52:	3a 0b       	.word	0x0b3a;	????	
  54:	3b 0b       	.word	0x0b3b;	????	
  56:	49 13       	.word	0x1349;	????	
  58:	02 0a       	.word	0x0a02;	????	
  5a:	00 00       	.word	0x0000;	????	
  5c:	07 0b       	.word	0x0b07;	????	
  5e:	01 11       	rra	r1		
  60:	01 12       	push	r1		
  62:	01 00       	.word	0x0001;	????	
  64:	00 08       	.word	0x0800;	????	
  66:	34 00       	.word	0x0034;	????	
  68:	03 08       	.word	0x0803;	????	
  6a:	3a 0b       	.word	0x0b3a;	????	
  6c:	3b 0b       	.word	0x0b3b;	????	
  6e:	49 13       	.word	0x1349;	????	
  70:	02 0a       	.word	0x0a02;	????	
  72:	00 00       	.word	0x0000;	????	
  74:	09 0b       	.word	0x0b09;	????	
  76:	01 11       	rra	r1		
  78:	01 12       	push	r1		
  7a:	01 01       	.word	0x0101;	????	
  7c:	13 00       	.word	0x0013;	????	
  7e:	00 0a       	.word	0x0a00;	????	
  80:	01 01       	.word	0x0101;	????	
  82:	49 13       	.word	0x1349;	????	
  84:	01 13       	reti			;return from interupt
  86:	00 00       	.word	0x0000;	????	
  88:	0b 21       	jnz	$+536    	;abs 0x2a0
  8a:	00 49       	br	r9		
  8c:	13 2f       	jc	$-472    	;abs 0xfeb4
  8e:	0b 00       	.word	0x000b;	????	
  90:	00 0c       	.word	0x0c00;	????	
  92:	34 00       	.word	0x0034;	????	
  94:	03 0e       	.word	0x0e03;	????	
  96:	3a 0b       	.word	0x0b3a;	????	
  98:	3b 05       	.word	0x053b;	????	
  9a:	87 40 0e 49 	mov	r0,	18702(r7);0x490e(r7)
  9e:	13 3f       	jmp	$-472    	;abs 0xfec6
  a0:	0c 3c       	jmp	$+26     	;abs 0xba
  a2:	0c 00       	.word	0x000c;	????	
  a4:	00 0d       	.word	0x0d00;	????	
  a6:	35 00       	.word	0x0035;	????	
  a8:	49 13       	.word	0x1349;	????	
  aa:	00 00       	.word	0x0000;	????	
  ac:	0e 26       	jz	$-994    	;abs 0xfcca
  ae:	00 49       	br	r9		
  b0:	13 00       	.word	0x0013;	????	
  b2:	00 00       	.word	0x0000;	????	
  b4:	01 11       	rra	r1		
  b6:	00 10       	rrc	r0		
  b8:	06 11       	rra	r6		
  ba:	01 12       	push	r1		
  bc:	01 03       	.word	0x0301;	????	
  be:	08 1b       	.word	0x1b08;	????	
  c0:	08 25       	jz	$+530    	;abs 0x2d2
  c2:	08 13       	reti			;return from interupt
  c4:	05 00       	.word	0x0005;	????	
  c6:	00 00       	.word	0x0000;	????	
  c8:	01 11       	rra	r1		
  ca:	00 10       	rrc	r0		
  cc:	06 11       	rra	r6		
  ce:	01 12       	push	r1		
  d0:	01 03       	.word	0x0301;	????	
  d2:	08 1b       	.word	0x1b08;	????	
  d4:	08 25       	jz	$+530    	;abs 0x2e6
  d6:	08 13       	reti			;return from interupt
  d8:	05 00       	.word	0x0005;	????	
  da:	00 00       	.word	0x0000;	????	
  dc:	01 11       	rra	r1		
  de:	00 10       	rrc	r0		
  e0:	06 11       	rra	r6		
  e2:	01 12       	push	r1		
  e4:	01 03       	.word	0x0301;	????	
  e6:	08 1b       	.word	0x1b08;	????	
  e8:	08 25       	jz	$+530    	;abs 0x2fa
  ea:	08 13       	reti			;return from interupt
  ec:	05 00       	.word	0x0005;	????	
  ee:	00 00       	.word	0x0000;	????	
  f0:	01 11       	rra	r1		
  f2:	00 10       	rrc	r0		
  f4:	06 11       	rra	r6		
  f6:	01 12       	push	r1		
  f8:	01 03       	.word	0x0301;	????	
  fa:	08 1b       	.word	0x1b08;	????	
  fc:	08 25       	jz	$+530    	;abs 0x30e
  fe:	08 13       	reti			;return from interupt
 100:	05 00       	.word	0x0005;	????	
 102:	00 00       	.word	0x0000;	????	
 104:	01 11       	rra	r1		
 106:	00 10       	rrc	r0		
 108:	06 11       	rra	r6		
 10a:	01 12       	push	r1		
 10c:	01 03       	.word	0x0301;	????	
 10e:	08 1b       	.word	0x1b08;	????	
 110:	08 25       	jz	$+530    	;abs 0x322
 112:	08 13       	reti			;return from interupt
 114:	05 00       	.word	0x0005;	????	
 116:	00 00       	.word	0x0000;	????	
 118:	01 11       	rra	r1		
 11a:	00 10       	rrc	r0		
 11c:	06 11       	rra	r6		
 11e:	01 12       	push	r1		
 120:	01 03       	.word	0x0301;	????	
 122:	08 1b       	.word	0x1b08;	????	
 124:	08 25       	jz	$+530    	;abs 0x336
 126:	08 13       	reti			;return from interupt
 128:	05 00       	.word	0x0005;	????	
 12a:	00 00       	.word	0x0000;	????	
 12c:	01 11       	rra	r1		
 12e:	01 25       	jz	$+516    	;abs 0x332
 130:	0e 13       	reti			;return from interupt
 132:	0b 03       	.word	0x030b;	????	
 134:	0e 1b       	.word	0x1b0e;	????	
 136:	0e 11       	rra	r14		
 138:	01 12       	push	r1		
 13a:	01 10       	rrc	r1		
 13c:	06 00       	.word	0x0006;	????	
 13e:	00 02       	.word	0x0200;	????	
 140:	16 00       	.word	0x0016;	????	
 142:	03 0e       	.word	0x0e03;	????	
 144:	3a 0b       	.word	0x0b3a;	????	
 146:	3b 0b       	.word	0x0b3b;	????	
 148:	49 13       	.word	0x1349;	????	
 14a:	00 00       	.word	0x0000;	????	
 14c:	03 0f       	.word	0x0f03;	????	
 14e:	00 0b       	.word	0x0b00;	????	
 150:	0b 03       	.word	0x030b;	????	
 152:	0e 00       	.word	0x000e;	????	
 154:	00 04       	.word	0x0400;	????	
 156:	2e 01       	.word	0x012e;	????	
 158:	03 0e       	.word	0x0e03;	????	
 15a:	3a 0b       	.word	0x0b3a;	????	
 15c:	3b 0b       	.word	0x0b3b;	????	
 15e:	27 0c       	.word	0x0c27;	????	
 160:	11 01       	.word	0x0111;	????	
 162:	12 01       	.word	0x0112;	????	
 164:	40 06       	.word	0x0640;	????	
 166:	01 13       	reti			;return from interupt
 168:	00 00       	.word	0x0000;	????	
 16a:	05 05       	.word	0x0505;	????	
 16c:	00 03       	.word	0x0300;	????	
 16e:	08 3a       	jl	$-1006   	;abs 0xfd80
 170:	0b 3b       	jl	$-488    	;abs 0xff88
 172:	0b 49       	mov	r9,	r11	
 174:	13 02       	.word	0x0213;	????	
 176:	06 00       	.word	0x0006;	????	
 178:	00 06       	.word	0x0600;	????	
 17a:	34 00       	.word	0x0034;	????	
 17c:	03 08       	.word	0x0803;	????	
 17e:	3a 0b       	.word	0x0b3a;	????	
 180:	3b 0b       	.word	0x0b3b;	????	
 182:	49 13       	.word	0x1349;	????	
 184:	02 06       	.word	0x0602;	????	
 186:	00 00       	.word	0x0000;	????	
 188:	07 24       	jz	$+16     	;abs 0x198
 18a:	00 0b       	.word	0x0b00;	????	
 18c:	0b 3e       	jmp	$-1000   	;abs 0xfda4
 18e:	0b 03       	.word	0x030b;	????	
 190:	0e 00       	.word	0x000e;	????	
 192:	00 08       	.word	0x0800;	????	
 194:	0f 00       	.word	0x000f;	????	
 196:	0b 0b       	.word	0x0b0b;	????	
 198:	49 13       	.word	0x1349;	????	
 19a:	00 00       	.word	0x0000;	????	
 19c:	09 26       	jz	$-1004   	;abs 0xfdb0
 19e:	00 49       	br	r9		
 1a0:	13 00       	.word	0x0013;	????	
 1a2:	00 0a       	.word	0x0a00;	????	
 1a4:	2e 01       	.word	0x012e;	????	
 1a6:	03 0e       	.word	0x0e03;	????	
 1a8:	3a 0b       	.word	0x0b3a;	????	
 1aa:	3b 0b       	.word	0x0b3b;	????	
 1ac:	27 0c       	.word	0x0c27;	????	
 1ae:	11 01       	.word	0x0111;	????	
 1b0:	12 01       	.word	0x0112;	????	
 1b2:	40 0a       	.word	0x0a40;	????	
 1b4:	01 13       	reti			;return from interupt
 1b6:	00 00       	.word	0x0000;	????	
 1b8:	0b 34       	jge	$+24     	;abs 0x1d0
 1ba:	00 03       	.word	0x0300;	????	
 1bc:	08 3a       	jl	$-1006   	;abs 0xfdce
 1be:	0b 3b       	jl	$-488    	;abs 0xffd6
 1c0:	0b 49       	mov	r9,	r11	
 1c2:	13 02       	.word	0x0213;	????	
 1c4:	0a 00       	.word	0x000a;	????	
 1c6:	00 0c       	.word	0x0c00;	????	
 1c8:	01 01       	.word	0x0101;	????	
 1ca:	49 13       	.word	0x1349;	????	
 1cc:	01 13       	reti			;return from interupt
 1ce:	00 00       	.word	0x0000;	????	
 1d0:	0d 21       	jnz	$+540    	;abs 0x3ec
 1d2:	00 49       	br	r9		
 1d4:	13 2f       	jc	$-472    	;abs 0xfffc
 1d6:	0b 00       	.word	0x000b;	????	
 1d8:	00 0e       	.word	0x0e00;	????	
 1da:	2e 01       	.word	0x012e;	????	
 1dc:	3f 0c       	.word	0x0c3f;	????	
 1de:	03 0e       	.word	0x0e03;	????	
 1e0:	3a 0b       	.word	0x0b3a;	????	
 1e2:	3b 0b       	.word	0x0b3b;	????	
 1e4:	27 0c       	.word	0x0c27;	????	
 1e6:	11 01       	.word	0x0111;	????	
 1e8:	12 01       	.word	0x0112;	????	
 1ea:	40 06       	.word	0x0640;	????	
 1ec:	01 13       	reti			;return from interupt
 1ee:	00 00       	.word	0x0000;	????	
 1f0:	0f 05       	.word	0x050f;	????	
 1f2:	00 03       	.word	0x0300;	????	
 1f4:	0e 3a       	jl	$-994    	;abs 0xfe12
 1f6:	0b 3b       	jl	$-488    	;abs 0xe
 1f8:	0b 49       	mov	r9,	r11	
 1fa:	13 02       	.word	0x0213;	????	
 1fc:	06 00       	.word	0x0006;	????	
 1fe:	00 10       	rrc	r0		
 200:	24 00       	.word	0x0024;	????	
 202:	0b 0b       	.word	0x0b0b;	????	
 204:	3e 0b       	.word	0x0b3e;	????	
 206:	03 08       	.word	0x0803;	????	
 208:	00 00       	.word	0x0000;	????	
 20a:	11 34       	jge	$+36     	;abs 0x22e
 20c:	00 03       	.word	0x0300;	????	
 20e:	0e 3a       	jl	$-994    	;abs 0xfe2c
 210:	0b 3b       	jl	$-488    	;abs 0x28
 212:	0b 49       	mov	r9,	r11	
 214:	13 02       	.word	0x0213;	????	
 216:	0a 00       	.word	0x000a;	????	
 218:	00 12       	push	r0		
 21a:	18 00       	.word	0x0018;	????	
 21c:	00 00       	.word	0x0000;	????	
 21e:	13 0a       	.word	0x0a13;	????	
 220:	00 03       	.word	0x0300;	????	
 222:	0e 3a       	jl	$-994    	;abs 0xfe40
 224:	0b 3b       	jl	$-488    	;abs 0x3c
 226:	0b 11       	rra	r11		
 228:	01 00       	.word	0x0001;	????	
 22a:	00 00       	.word	0x0000;	????	
 22c:	01 11       	rra	r1		
 22e:	01 25       	jz	$+516    	;abs 0x432
 230:	0e 13       	reti			;return from interupt
 232:	0b 03       	.word	0x030b;	????	
 234:	0e 1b       	.word	0x1b0e;	????	
 236:	0e 11       	rra	r14		
 238:	01 12       	push	r1		
 23a:	01 10       	rrc	r1		
 23c:	06 00       	.word	0x0006;	????	
 23e:	00 02       	.word	0x0200;	????	
 240:	2e 01       	.word	0x012e;	????	
 242:	3f 0c       	.word	0x0c3f;	????	
 244:	03 0e       	.word	0x0e03;	????	
 246:	3a 0b       	.word	0x0b3a;	????	
 248:	3b 0b       	.word	0x0b3b;	????	
 24a:	27 0c       	.word	0x0c27;	????	
 24c:	11 01       	.word	0x0111;	????	
 24e:	12 01       	.word	0x0112;	????	
 250:	40 0a       	.word	0x0a40;	????	
 252:	01 13       	reti			;return from interupt
 254:	00 00       	.word	0x0000;	????	
 256:	03 05       	.word	0x0503;	????	
 258:	00 03       	.word	0x0300;	????	
 25a:	08 3a       	jl	$-1006   	;abs 0xfe6c
 25c:	0b 3b       	jl	$-488    	;abs 0x74
 25e:	0b 49       	mov	r9,	r11	
 260:	13 02       	.word	0x0213;	????	
 262:	06 00       	.word	0x0006;	????	
 264:	00 04       	.word	0x0400;	????	
 266:	24 00       	.word	0x0024;	????	
 268:	0b 0b       	.word	0x0b0b;	????	
 26a:	3e 0b       	.word	0x0b3e;	????	
 26c:	03 0e       	.word	0x0e03;	????	
 26e:	00 00       	.word	0x0000;	????	
 270:	05 2e       	jc	$-1012   	;abs 0xfe7c
 272:	00 3f       	jmp	$-510    	;abs 0x74
 274:	0c 03       	.word	0x030c;	????	
 276:	0e 3a       	jl	$-994    	;abs 0xfe94
 278:	0b 3b       	jl	$-488    	;abs 0x90
 27a:	0b 49       	mov	r9,	r11	
 27c:	13 11       	rra	#1		;r3 As==01
 27e:	01 12       	push	r1		
 280:	01 40       	mov	r0,	r1	
 282:	0a 00       	.word	0x000a;	????	
 284:	00 00       	.word	0x0000;	????	
 286:	01 11       	rra	r1		
 288:	01 25       	jz	$+516    	;abs 0x48c
 28a:	0e 13       	reti			;return from interupt
 28c:	0b 03       	.word	0x030b;	????	
 28e:	0e 1b       	.word	0x1b0e;	????	
 290:	0e 11       	rra	r14		
 292:	01 12       	push	r1		
 294:	01 10       	rrc	r1		
 296:	06 00       	.word	0x0006;	????	
 298:	00 02       	.word	0x0200;	????	
 29a:	24 00       	.word	0x0024;	????	
 29c:	0b 0b       	.word	0x0b0b;	????	
 29e:	3e 0b       	.word	0x0b3e;	????	
 2a0:	03 0e       	.word	0x0e03;	????	
 2a2:	00 00       	.word	0x0000;	????	
 2a4:	03 24       	jz	$+8      	;abs 0x2ac
 2a6:	00 0b       	.word	0x0b00;	????	
 2a8:	0b 3e       	jmp	$-1000   	;abs 0xfec0
 2aa:	0b 03       	.word	0x030b;	????	
 2ac:	08 00       	.word	0x0008;	????	
 2ae:	00 04       	.word	0x0400;	????	
 2b0:	2e 01       	.word	0x012e;	????	
 2b2:	3f 0c       	.word	0x0c3f;	????	
 2b4:	03 0e       	.word	0x0e03;	????	
 2b6:	3a 0b       	.word	0x0b3a;	????	
 2b8:	3b 0b       	.word	0x0b3b;	????	
 2ba:	27 0c       	.word	0x0c27;	????	
 2bc:	11 01       	.word	0x0111;	????	
 2be:	12 01       	.word	0x0112;	????	
 2c0:	40 0a       	.word	0x0a40;	????	
 2c2:	01 13       	reti			;return from interupt
 2c4:	00 00       	.word	0x0000;	????	
 2c6:	05 05       	.word	0x0505;	????	
 2c8:	00 03       	.word	0x0300;	????	
 2ca:	0e 3a       	jl	$-994    	;abs 0xfee8
 2cc:	0b 3b       	jl	$-488    	;abs 0xe4
 2ce:	0b 49       	mov	r9,	r11	
 2d0:	13 02       	.word	0x0213;	????	
 2d2:	0a 00       	.word	0x000a;	????	
 2d4:	00 06       	.word	0x0600;	????	
 2d6:	05 00       	.word	0x0005;	????	
 2d8:	03 0e       	.word	0x0e03;	????	
 2da:	3a 0b       	.word	0x0b3a;	????	
 2dc:	3b 0b       	.word	0x0b3b;	????	
 2de:	49 13       	.word	0x1349;	????	
 2e0:	02 06       	.word	0x0602;	????	
 2e2:	00 00       	.word	0x0000;	????	
 2e4:	07 2e       	jc	$-1008   	;abs 0xfef4
 2e6:	00 3f       	jmp	$-510    	;abs 0xe8
 2e8:	0c 03       	.word	0x030c;	????	
 2ea:	0e 3a       	jl	$-994    	;abs 0xff08
 2ec:	0b 3b       	jl	$-488    	;abs 0x104
 2ee:	0b 49       	mov	r9,	r11	
 2f0:	13 11       	rra	#1		;r3 As==01
 2f2:	01 12       	push	r1		
 2f4:	01 40       	mov	r0,	r1	
 2f6:	0a 00       	.word	0x000a;	????	
 2f8:	00 08       	.word	0x0800;	????	
 2fa:	34 00       	.word	0x0034;	????	
 2fc:	03 0e       	.word	0x0e03;	????	
 2fe:	3a 0b       	.word	0x0b3a;	????	
 300:	3b 0b       	.word	0x0b3b;	????	
 302:	87 40 0e 49 	mov	r0,	18702(r7);0x490e(r7)
 306:	13 3f       	jmp	$-472    	;abs 0x12e
 308:	0c 3c       	jmp	$+26     	;abs 0x322
 30a:	0c 00       	.word	0x000c;	????	
 30c:	00 09       	.word	0x0900;	????	
 30e:	35 00       	.word	0x0035;	????	
 310:	49 13       	.word	0x1349;	????	
 312:	00 00       	.word	0x0000;	????	
 314:	0a 34       	jge	$+22     	;abs 0x32a
 316:	00 03       	.word	0x0300;	????	
 318:	0e 3a       	jl	$-994    	;abs 0xff36
 31a:	0b 3b       	jl	$-488    	;abs 0x132
 31c:	05 87       	sub	r7,	r5	
 31e:	40 0e       	.word	0x0e40;	????	
 320:	49 13       	.word	0x1349;	????	
 322:	3f 0c       	.word	0x0c3f;	????	
 324:	3c 0c       	.word	0x0c3c;	????	
 326:	00 00       	.word	0x0000;	????	
 328:	0b 26       	jz	$-1000   	;abs 0xff40
 32a:	00 49       	br	r9		
 32c:	13 00       	.word	0x0013;	????	
 32e:	00 00       	.word	0x0000;	????	
 330:	01 11       	rra	r1		
 332:	00 10       	rrc	r0		
 334:	06 11       	rra	r6		
 336:	01 12       	push	r1		
 338:	01 03       	.word	0x0301;	????	
 33a:	08 1b       	.word	0x1b08;	????	
 33c:	08 25       	jz	$+530    	;abs 0x54e
 33e:	08 13       	reti			;return from interupt
 340:	05 00       	.word	0x0005;	????	
 342:	00 00       	.word	0x0000;	????	
 344:	01 11       	rra	r1		
 346:	00 10       	rrc	r0		
 348:	06 11       	rra	r6		
 34a:	01 12       	push	r1		
 34c:	01 03       	.word	0x0301;	????	
 34e:	08 1b       	.word	0x1b08;	????	
 350:	08 25       	jz	$+530    	;abs 0x562
 352:	08 13       	reti			;return from interupt
 354:	05 00       	.word	0x0005;	????	
 356:	00 00       	.word	0x0000;	????	
 358:	01 11       	rra	r1		
 35a:	01 25       	jz	$+516    	;abs 0x55e
 35c:	0e 13       	reti			;return from interupt
 35e:	0b 03       	.word	0x030b;	????	
 360:	0e 1b       	.word	0x1b0e;	????	
 362:	0e 11       	rra	r14		
 364:	01 12       	push	r1		
 366:	01 10       	rrc	r1		
 368:	06 00       	.word	0x0006;	????	
 36a:	00 02       	.word	0x0200;	????	
 36c:	24 00       	.word	0x0024;	????	
 36e:	0b 0b       	.word	0x0b0b;	????	
 370:	3e 0b       	.word	0x0b3e;	????	
 372:	03 0e       	.word	0x0e03;	????	
 374:	00 00       	.word	0x0000;	????	
 376:	03 24       	jz	$+8      	;abs 0x37e
 378:	00 0b       	.word	0x0b00;	????	
 37a:	0b 3e       	jmp	$-1000   	;abs 0xff92
 37c:	0b 03       	.word	0x030b;	????	
 37e:	08 00       	.word	0x0008;	????	
 380:	00 04       	.word	0x0400;	????	
 382:	0f 00       	.word	0x000f;	????	
 384:	0b 0b       	.word	0x0b0b;	????	
 386:	49 13       	.word	0x1349;	????	
 388:	00 00       	.word	0x0000;	????	
 38a:	05 26       	jz	$-1012   	;abs 0xff96
 38c:	00 49       	br	r9		
 38e:	13 00       	.word	0x0013;	????	
 390:	00 06       	.word	0x0600;	????	
 392:	2e 01       	.word	0x012e;	????	
 394:	3f 0c       	.word	0x0c3f;	????	
 396:	03 0e       	.word	0x0e03;	????	
 398:	3a 0b       	.word	0x0b3a;	????	
 39a:	3b 0b       	.word	0x0b3b;	????	
 39c:	27 0c       	.word	0x0c27;	????	
 39e:	49 13       	.word	0x1349;	????	
 3a0:	11 01       	.word	0x0111;	????	
 3a2:	12 01       	.word	0x0112;	????	
 3a4:	40 0a       	.word	0x0a40;	????	
 3a6:	00 00       	.word	0x0000;	????	
 3a8:	07 05       	.word	0x0507;	????	
 3aa:	00 03       	.word	0x0300;	????	
 3ac:	08 3a       	jl	$-1006   	;abs 0xffbe
 3ae:	0b 3b       	jl	$-488    	;abs 0x1c6
 3b0:	0b 49       	mov	r9,	r11	
 3b2:	13 02       	.word	0x0213;	????	
 3b4:	06 00       	.word	0x0006;	????	
 3b6:	00 08       	.word	0x0800;	????	
 3b8:	05 00       	.word	0x0005;	????	
 3ba:	03 08       	.word	0x0803;	????	
 3bc:	3a 0b       	.word	0x0b3a;	????	
 3be:	3b 0b       	.word	0x0b3b;	????	
 3c0:	49 13       	.word	0x1349;	????	
 3c2:	02 0a       	.word	0x0a02;	????	
 3c4:	00 00       	.word	0x0000;	????	
 3c6:	00 01       	.word	0x0100;	????	
 3c8:	11 01       	.word	0x0111;	????	
 3ca:	25 0e       	.word	0x0e25;	????	
 3cc:	13 0b       	.word	0x0b13;	????	
 3ce:	03 0e       	.word	0x0e03;	????	
 3d0:	1b 0e       	.word	0x0e1b;	????	
 3d2:	11 01       	.word	0x0111;	????	
 3d4:	12 01       	.word	0x0112;	????	
 3d6:	10 06       	.word	0x0610;	????	
 3d8:	00 00       	.word	0x0000;	????	
 3da:	02 24       	jz	$+6      	;abs 0x3e0
 3dc:	00 0b       	.word	0x0b00;	????	
 3de:	0b 3e       	jmp	$-1000   	;abs 0xfff6
 3e0:	0b 03       	.word	0x030b;	????	
 3e2:	0e 00       	.word	0x000e;	????	
 3e4:	00 03       	.word	0x0300;	????	
 3e6:	24 00       	.word	0x0024;	????	
 3e8:	0b 0b       	.word	0x0b0b;	????	
 3ea:	3e 0b       	.word	0x0b3e;	????	
 3ec:	03 08       	.word	0x0803;	????	
 3ee:	00 00       	.word	0x0000;	????	
 3f0:	04 16       	.word	0x1604;	????	
 3f2:	00 03       	.word	0x0300;	????	
 3f4:	0e 3a       	jl	$-994    	;abs 0x12
 3f6:	0b 3b       	jl	$-488    	;abs 0x20e
 3f8:	0b 49       	mov	r9,	r11	
 3fa:	13 00       	.word	0x0013;	????	
 3fc:	00 05       	.word	0x0500;	????	
 3fe:	2e 01       	.word	0x012e;	????	
 400:	3f 0c       	.word	0x0c3f;	????	
 402:	03 0e       	.word	0x0e03;	????	
 404:	3a 0b       	.word	0x0b3a;	????	
 406:	3b 0b       	.word	0x0b3b;	????	
 408:	27 0c       	.word	0x0c27;	????	
 40a:	49 13       	.word	0x1349;	????	
 40c:	11 01       	.word	0x0111;	????	
 40e:	12 01       	.word	0x0112;	????	
 410:	40 06       	.word	0x0640;	????	
 412:	01 13       	reti			;return from interupt
 414:	00 00       	.word	0x0000;	????	
 416:	06 05       	.word	0x0506;	????	
 418:	00 03       	.word	0x0300;	????	
 41a:	0e 3a       	jl	$-994    	;abs 0x38
 41c:	0b 3b       	jl	$-488    	;abs 0x234
 41e:	0b 49       	mov	r9,	r11	
 420:	13 02       	.word	0x0213;	????	
 422:	0a 00       	.word	0x000a;	????	
 424:	00 07       	.word	0x0700;	????	
 426:	05 00       	.word	0x0005;	????	
 428:	03 08       	.word	0x0803;	????	
 42a:	3a 0b       	.word	0x0b3a;	????	
 42c:	3b 0b       	.word	0x0b3b;	????	
 42e:	49 13       	.word	0x1349;	????	
 430:	02 06       	.word	0x0602;	????	
 432:	00 00       	.word	0x0000;	????	
 434:	08 05       	.word	0x0508;	????	
 436:	00 03       	.word	0x0300;	????	
 438:	0e 3a       	jl	$-994    	;abs 0x56
 43a:	0b 3b       	jl	$-488    	;abs 0x252
 43c:	0b 49       	mov	r9,	r11	
 43e:	13 02       	.word	0x0213;	????	
 440:	06 00       	.word	0x0006;	????	
 442:	00 09       	.word	0x0900;	????	
 444:	34 00       	.word	0x0034;	????	
 446:	03 08       	.word	0x0803;	????	
 448:	3a 0b       	.word	0x0b3a;	????	
 44a:	3b 0b       	.word	0x0b3b;	????	
 44c:	49 13       	.word	0x1349;	????	
 44e:	02 06       	.word	0x0602;	????	
 450:	00 00       	.word	0x0000;	????	
 452:	0a 0f       	.word	0x0f0a;	????	
 454:	00 0b       	.word	0x0b00;	????	
 456:	0b 00       	.word	0x000b;	????	
 458:	00 0b       	.word	0x0b00;	????	
 45a:	0f 00       	.word	0x000f;	????	
 45c:	0b 0b       	.word	0x0b0b;	????	
 45e:	49 13       	.word	0x1349;	????	
 460:	00 00       	.word	0x0000;	????	
 462:	00 01       	.word	0x0100;	????	
 464:	11 01       	.word	0x0111;	????	
 466:	25 0e       	.word	0x0e25;	????	
 468:	13 0b       	.word	0x0b13;	????	
 46a:	03 0e       	.word	0x0e03;	????	
 46c:	1b 0e       	.word	0x0e1b;	????	
 46e:	11 01       	.word	0x0111;	????	
 470:	12 01       	.word	0x0112;	????	
 472:	10 06       	.word	0x0610;	????	
 474:	00 00       	.word	0x0000;	????	
 476:	02 24       	jz	$+6      	;abs 0x47c
 478:	00 0b       	.word	0x0b00;	????	
 47a:	0b 3e       	jmp	$-1000   	;abs 0x92
 47c:	0b 03       	.word	0x030b;	????	
 47e:	0e 00       	.word	0x000e;	????	
 480:	00 03       	.word	0x0300;	????	
 482:	24 00       	.word	0x0024;	????	
 484:	0b 0b       	.word	0x0b0b;	????	
 486:	3e 0b       	.word	0x0b3e;	????	
 488:	03 08       	.word	0x0803;	????	
 48a:	00 00       	.word	0x0000;	????	
 48c:	04 0f       	.word	0x0f04;	????	
 48e:	00 0b       	.word	0x0b00;	????	
 490:	0b 49       	mov	r9,	r11	
 492:	13 00       	.word	0x0013;	????	
 494:	00 05       	.word	0x0500;	????	
 496:	26 00       	.word	0x0026;	????	
 498:	49 13       	.word	0x1349;	????	
 49a:	00 00       	.word	0x0000;	????	
 49c:	06 2e       	jc	$-1010   	;abs 0xaa
 49e:	01 3f       	jmp	$-508    	;abs 0x2a2
 4a0:	0c 03       	.word	0x030c;	????	
 4a2:	0e 3a       	jl	$-994    	;abs 0xc0
 4a4:	0b 3b       	jl	$-488    	;abs 0x2bc
 4a6:	0b 27       	jz	$-488    	;abs 0x2be
 4a8:	0c 49       	mov	r9,	r12	
 4aa:	13 11       	rra	#1		;r3 As==01
 4ac:	01 12       	push	r1		
 4ae:	01 40       	mov	r0,	r1	
 4b0:	06 01       	.word	0x0106;	????	
 4b2:	13 00       	.word	0x0013;	????	
 4b4:	00 07       	.word	0x0700;	????	
 4b6:	05 00       	.word	0x0005;	????	
 4b8:	03 0e       	.word	0x0e03;	????	
 4ba:	3a 0b       	.word	0x0b3a;	????	
 4bc:	3b 0b       	.word	0x0b3b;	????	
 4be:	49 13       	.word	0x1349;	????	
 4c0:	02 06       	.word	0x0602;	????	
 4c2:	00 00       	.word	0x0000;	????	
 4c4:	08 05       	.word	0x0508;	????	
 4c6:	00 03       	.word	0x0300;	????	
 4c8:	0e 3a       	jl	$-994    	;abs 0xe6
 4ca:	0b 3b       	jl	$-488    	;abs 0x2e2
 4cc:	0b 49       	mov	r9,	r11	
 4ce:	13 02       	.word	0x0213;	????	
 4d0:	0a 00       	.word	0x000a;	????	
 4d2:	00 09       	.word	0x0900;	????	
 4d4:	34 00       	.word	0x0034;	????	
 4d6:	03 08       	.word	0x0803;	????	
 4d8:	3a 0b       	.word	0x0b3a;	????	
 4da:	3b 0b       	.word	0x0b3b;	????	
 4dc:	49 13       	.word	0x1349;	????	
 4de:	02 06       	.word	0x0602;	????	
 4e0:	00 00       	.word	0x0000;	????	
 4e2:	0a 34       	jge	$+22     	;abs 0x4f8
 4e4:	00 03       	.word	0x0300;	????	
 4e6:	0e 3a       	jl	$-994    	;abs 0x104
 4e8:	0b 3b       	jl	$-488    	;abs 0x300
 4ea:	0b 49       	mov	r9,	r11	
 4ec:	13 02       	.word	0x0213;	????	
 4ee:	06 00       	.word	0x0006;	????	
 4f0:	00 0b       	.word	0x0b00;	????	
 4f2:	34 00       	.word	0x0034;	????	
 4f4:	03 08       	.word	0x0803;	????	
 4f6:	3a 0b       	.word	0x0b3a;	????	
 4f8:	3b 0b       	.word	0x0b3b;	????	
 4fa:	49 13       	.word	0x1349;	????	
 4fc:	02 0a       	.word	0x0a02;	????	
 4fe:	00 00       	.word	0x0000;	????	
 500:	00 01       	.word	0x0100;	????	
 502:	11 01       	.word	0x0111;	????	
 504:	25 0e       	.word	0x0e25;	????	
 506:	13 0b       	.word	0x0b13;	????	
 508:	03 0e       	.word	0x0e03;	????	
 50a:	1b 0e       	.word	0x0e1b;	????	
 50c:	11 01       	.word	0x0111;	????	
 50e:	12 01       	.word	0x0112;	????	
 510:	10 06       	.word	0x0610;	????	
 512:	00 00       	.word	0x0000;	????	
 514:	02 24       	jz	$+6      	;abs 0x51a
 516:	00 0b       	.word	0x0b00;	????	
 518:	0b 3e       	jmp	$-1000   	;abs 0x130
 51a:	0b 03       	.word	0x030b;	????	
 51c:	0e 00       	.word	0x000e;	????	
 51e:	00 03       	.word	0x0300;	????	
 520:	24 00       	.word	0x0024;	????	
 522:	0b 0b       	.word	0x0b0b;	????	
 524:	3e 0b       	.word	0x0b3e;	????	
 526:	03 08       	.word	0x0803;	????	
 528:	00 00       	.word	0x0000;	????	
 52a:	04 0f       	.word	0x0f04;	????	
 52c:	00 0b       	.word	0x0b00;	????	
 52e:	0b 49       	mov	r9,	r11	
 530:	13 00       	.word	0x0013;	????	
 532:	00 05       	.word	0x0500;	????	
 534:	26 00       	.word	0x0026;	????	
 536:	49 13       	.word	0x1349;	????	
 538:	00 00       	.word	0x0000;	????	
 53a:	06 2e       	jc	$-1010   	;abs 0x148
 53c:	01 3f       	jmp	$-508    	;abs 0x340
 53e:	0c 03       	.word	0x030c;	????	
 540:	0e 3a       	jl	$-994    	;abs 0x15e
 542:	0b 3b       	jl	$-488    	;abs 0x35a
 544:	0b 27       	jz	$-488    	;abs 0x35c
 546:	0c 49       	mov	r9,	r12	
 548:	13 11       	rra	#1		;r3 As==01
 54a:	01 12       	push	r1		
 54c:	01 40       	mov	r0,	r1	
 54e:	06 00       	.word	0x0006;	????	
 550:	00 07       	.word	0x0700;	????	
 552:	05 00       	.word	0x0005;	????	
 554:	03 08       	.word	0x0803;	????	
 556:	3a 0b       	.word	0x0b3a;	????	
 558:	3b 0b       	.word	0x0b3b;	????	
 55a:	49 13       	.word	0x1349;	????	
 55c:	02 06       	.word	0x0602;	????	
 55e:	00 00       	.word	0x0000;	????	
 560:	08 34       	jge	$+18     	;abs 0x572
 562:	00 03       	.word	0x0300;	????	
 564:	0e 3a       	jl	$-994    	;abs 0x182
 566:	0b 3b       	jl	$-488    	;abs 0x37e
 568:	0b 49       	mov	r9,	r11	
 56a:	13 02       	.word	0x0213;	????	
 56c:	06 00       	.word	0x0006;	????	
 56e:	00 09       	.word	0x0900;	????	
 570:	34 00       	.word	0x0034;	????	
 572:	03 08       	.word	0x0803;	????	
 574:	3a 0b       	.word	0x0b3a;	????	
 576:	3b 0b       	.word	0x0b3b;	????	
 578:	49 13       	.word	0x1349;	????	
 57a:	02 06       	.word	0x0602;	????	
 57c:	00 00       	.word	0x0000;	????	
 57e:	00 01       	.word	0x0100;	????	
 580:	11 00       	.word	0x0011;	????	
 582:	10 06       	.word	0x0610;	????	
 584:	11 01       	.word	0x0111;	????	
 586:	12 01       	.word	0x0112;	????	
 588:	03 08       	.word	0x0803;	????	
 58a:	1b 08       	.word	0x081b;	????	
 58c:	25 08       	.word	0x0825;	????	
 58e:	13 05       	.word	0x0513;	????	
 590:	00 00       	.word	0x0000;	????	
 592:	00 01       	.word	0x0100;	????	
 594:	11 00       	.word	0x0011;	????	
 596:	10 06       	.word	0x0610;	????	
 598:	11 01       	.word	0x0111;	????	
 59a:	12 01       	.word	0x0112;	????	
 59c:	03 08       	.word	0x0803;	????	
 59e:	1b 08       	.word	0x081b;	????	
 5a0:	25 08       	.word	0x0825;	????	
 5a2:	13 05       	.word	0x0513;	????	
 5a4:	00 00       	.word	0x0000;	????	
 5a6:	00 01       	.word	0x0100;	????	
 5a8:	11 00       	.word	0x0011;	????	
 5aa:	10 06       	.word	0x0610;	????	
 5ac:	11 01       	.word	0x0111;	????	
 5ae:	12 01       	.word	0x0112;	????	
 5b0:	03 08       	.word	0x0803;	????	
 5b2:	1b 08       	.word	0x081b;	????	
 5b4:	25 08       	.word	0x0825;	????	
 5b6:	13 05       	.word	0x0513;	????	
 5b8:	00 00       	.word	0x0000;	????	
 5ba:	00 01       	.word	0x0100;	????	
 5bc:	11 00       	.word	0x0011;	????	
 5be:	10 06       	.word	0x0610;	????	
 5c0:	11 01       	.word	0x0111;	????	
 5c2:	12 01       	.word	0x0112;	????	
 5c4:	03 08       	.word	0x0803;	????	
 5c6:	1b 08       	.word	0x081b;	????	
 5c8:	25 08       	.word	0x0825;	????	
 5ca:	13 05       	.word	0x0513;	????	
 5cc:	00 00       	.word	0x0000;	????	
 5ce:	00 01       	.word	0x0100;	????	
 5d0:	11 00       	.word	0x0011;	????	
 5d2:	10 06       	.word	0x0610;	????	
 5d4:	11 01       	.word	0x0111;	????	
 5d6:	12 01       	.word	0x0112;	????	
 5d8:	03 08       	.word	0x0803;	????	
 5da:	1b 08       	.word	0x081b;	????	
 5dc:	25 08       	.word	0x0825;	????	
 5de:	13 05       	.word	0x0513;	????	
 5e0:	00 00       	.word	0x0000;	????	
 5e2:	00 01       	.word	0x0100;	????	
 5e4:	11 00       	.word	0x0011;	????	
 5e6:	10 06       	.word	0x0610;	????	
 5e8:	11 01       	.word	0x0111;	????	
 5ea:	12 01       	.word	0x0112;	????	
 5ec:	03 08       	.word	0x0803;	????	
 5ee:	1b 08       	.word	0x081b;	????	
 5f0:	25 08       	.word	0x0825;	????	
 5f2:	13 05       	.word	0x0513;	????	
 5f4:	00 00       	.word	0x0000;	????	
	...

Disassembly of section .debug_line:

00000000 <.debug_line>:
   0:	1e 01       	.word	0x011e;	????	
   2:	00 00       	.word	0x0000;	????	
   4:	02 00       	.word	0x0002;	????	
   6:	92 00       	.word	0x0092;	????	
   8:	00 00       	.word	0x0000;	????	
   a:	01 01       	.word	0x0101;	????	
   c:	fb 0e       	.word	0x0efb;	????	
   e:	0d 00       	.word	0x000d;	????	
  10:	01 01       	.word	0x0101;	????	
  12:	01 01       	.word	0x0101;	????	
  14:	00 00       	.word	0x0000;	????	
  16:	00 01       	.word	0x0100;	????	
  18:	00 00       	.word	0x0000;	????	
  1a:	01 2f       	jc	$-508    	;abs 0xfe1e
  1c:	68 6f       	addc.b	@r15,	r8	
  1e:	6d 65       	addc.b	@r5,	r13	
  20:	2f 6c       	addc	@r12,	r15	
  22:	33 2f       	jc	$-408    	;abs 0xfe8a
  24:	2e 6c       	addc	@r12,	r14	
  26:	6f 63       	addc.b	#2,	r15	;r3 As==10
  28:	61 6c       	addc.b	@r12,	r1	
  2a:	2f 65       	addc	@r5,	r15	
  2c:	6e 65       	addc.b	@r5,	r14	
  2e:	72 67       	addc.b	@r7+,	r2	
  30:	69 61       	addc.b	@r1,	r9	
  32:	2f 68       	addc	@r8,	r15	
  34:	61 72       	subc.b	#4,	r1	;r2 As==10
  36:	64 77       	subc.b	@r7,	r4	
  38:	61 72       	subc.b	#4,	r1	;r2 As==10
  3a:	65 2f       	jc	$-308    	;abs 0xff06
  3c:	74 6f       	addc.b	@r15+,	r4	
  3e:	6f 6c       	addc.b	@r12,	r15	
  40:	73 2f       	jc	$-280    	;abs 0xff28
  42:	6d 73       	subc.b	#2,	r13	;r3 As==10
  44:	70 34       	jge	$+226    	;abs 0x126
  46:	33 30       	jn	$+104    	;abs 0xae
  48:	2f 62       	addc	#4,	r15	;r2 As==10
  4a:	69 6e       	addc.b	@r14,	r9	
  4c:	2f 2e       	jc	$-928    	;abs 0xfcac
  4e:	2e 2f       	jc	$-418    	;abs 0xfeac
  50:	6c 69       	addc.b	@r9,	r12	
  52:	62 2f       	jc	$-314    	;abs 0xff18
  54:	67 63       	addc.b	#2,	r7	;r3 As==10
  56:	63 2f       	jc	$-312    	;abs 0xff1e
  58:	6d 73       	subc.b	#2,	r13	;r3 As==10
  5a:	70 34       	jge	$+226    	;abs 0x13c
  5c:	33 30       	jn	$+104    	;abs 0xc4
  5e:	2f 34       	jge	$+96     	;abs 0xbe
  60:	2e 36       	jge	$-930    	;abs 0xfcbe
  62:	2e 33       	jn	$-418    	;abs 0xfec0
  64:	2f 2e       	jc	$-928    	;abs 0xfcc4
  66:	2e 2f       	jc	$-418    	;abs 0xfec4
  68:	2e 2e       	jc	$-930    	;abs 0xfcc6
  6a:	2f 2e       	jc	$-928    	;abs 0xfcca
  6c:	2e 2f       	jc	$-418    	;abs 0xfeca
  6e:	2e 2e       	jc	$-930    	;abs 0xfccc
  70:	2f 6d       	addc	@r13,	r15	
  72:	73 70       	.word	0x7073;	????	Illegal as 2-op instr
  74:	34 33       	jn	$-406    	;abs 0xfede
  76:	30 2f       	jc	$-414    	;abs 0xfed8
  78:	69 6e       	addc.b	@r14,	r9	
  7a:	63 6c       	.word	0x6c63;	????	Illegal as 2-op instr
  7c:	75 64       	addc.b	@r4+,	r5	
  7e:	65 00       	.word	0x0065;	????	
  80:	00 72       	subc	r2,	r0	
  82:	70 6e       	addc.b	@r14+,	r0	
  84:	2e 63       	addc	#2,	r14	;r3 As==10
  86:	00 00       	.word	0x0000;	????	
  88:	00 00       	.word	0x0000;	????	
  8a:	6d 73       	subc.b	#2,	r13	;r3 As==10
  8c:	70 34       	jge	$+226    	;abs 0x16e
  8e:	33 30       	jn	$+104    	;abs 0xf6
  90:	67 32       	jn	$-816    	;abs 0xfd60
  92:	35 35       	jge	$+620    	;abs 0x2fe
  94:	33 2e       	jc	$-920    	;abs 0xfcfc
  96:	68 00       	.word	0x0068;	????	
  98:	01 00       	.word	0x0001;	????	
  9a:	00 00       	.word	0x0000;	????	
  9c:	00 03       	.word	0x0300;	????	
  9e:	02 3e       	jmp	$-1018   	;abs 0xfca4
  a0:	c0 14       	.word	0x14c0;	????	
  a2:	4b 67       	addc.b	r7,	r11	
  a4:	83 84       	sub	r4,	#1	;r3 As==01
  a6:	84 f3 4d 4b 	and	#0,	19277(r4);r3 As==00, 0x4b4d(r4)
  aa:	08 22       	jnz	$-1006   	;abs 0xfcbc
  ac:	83 84       	sub	r4,	#1	;r3 As==01
  ae:	2f 67       	addc	@r7,	r15	
  b0:	67 08       	.word	0x0867;	????	
  b2:	21 08       	.word	0x0821;	????	
  b4:	5b 08       	.word	0x085b;	????	
  b6:	af 00       	.word	0x00af;	????	
  b8:	02 04       	.word	0x0402;	????	
  ba:	01 03       	.word	0x0301;	????	
  bc:	76 82       	sub.b	#8,	r6	;r2 As==11
  be:	03 0d       	.word	0x0d03;	????	
  c0:	82 a0 83 2f 	dadd	r0,	&0x2f83	
  c4:	00 02       	.word	0x0200;	????	
  c6:	04 01       	.word	0x0104;	????	
  c8:	06 08       	.word	0x0806;	????	
  ca:	58 06       	.word	0x0658;	????	
  cc:	bb 67 00 02 	addc	@r7+,	512(r11);0x0200(r11)
  d0:	04 01       	.word	0x0104;	????	
  d2:	06 ba       	bit	r10,	r6	
  d4:	00 02       	.word	0x0200;	????	
  d6:	04 01       	.word	0x0104;	????	
  d8:	06 81       	sub	r1,	r6	
  da:	32 bb       	bit	@r11+,	r2	
  dc:	08 21       	jnz	$+530    	;abs 0x2ee
  de:	d7 08       	.word	0x08d7;	????	
  e0:	23 08       	.word	0x0823;	????	
  e2:	ae 08       	.word	0x08ae;	????	
  e4:	e5 30       	jn	$+460    	;abs 0x2b0
  e6:	08 e5       	xor	r5,	r8	
  e8:	30 08       	.word	0x0830;	????	
  ea:	e5 30       	jn	$+460    	;abs 0x2b6
  ec:	08 e5       	xor	r5,	r8	
  ee:	30 08       	.word	0x0830;	????	
  f0:	e5 30       	jn	$+460    	;abs 0x2bc
  f2:	08 e5       	xor	r5,	r8	
  f4:	32 83       	sub	#-1,	r2	;r3 As==11
  f6:	2b 03       	.word	0x032b;	????	
  f8:	62 2e       	jc	$-826    	;abs 0xfdbe
  fa:	03 25       	jz	$+520    	;abs 0x302
  fc:	2e 67       	addc	@r7,	r14	
  fe:	83 30       	jn	$+264    	;abs 0x206
 100:	03 57       	.word	0x5703;	????	Illegal as 2-op instr
 102:	08 c8       	bic	r8,	r8	
 104:	00 02       	.word	0x0200;	????	
 106:	04 01       	.word	0x0104;	????	
 108:	2c 03       	.word	0x032c;	????	
 10a:	30 08       	.word	0x0830;	????	
 10c:	74 83       	sub.b	#-1,	r4	;r3 As==11
 10e:	67 67       	addc.b	@r7,	r7	
 110:	02 22       	jnz	$-1018   	;abs 0xfd16
 112:	14 d2 00 02 	bis	&0x0200,r4	
 116:	04 01       	.word	0x0104;	????	
 118:	06 4a       	mov	r10,	r6	
 11a:	06 6d       	addc	r13,	r6	
 11c:	83 02       	.word	0x0283;	????	
 11e:	04 00       	.word	0x0004;	????	
 120:	01 01       	.word	0x0101;	????	
 122:	33 00       	.word	0x0033;	????	
 124:	00 00       	.word	0x0000;	????	
 126:	02 00       	.word	0x0002;	????	
 128:	21 00       	.word	0x0021;	????	
 12a:	00 00       	.word	0x0000;	????	
 12c:	01 01       	.word	0x0101;	????	
 12e:	fb 0e       	.word	0x0efb;	????	
 130:	0d 00       	.word	0x000d;	????	
 132:	01 01       	.word	0x0101;	????	
 134:	01 01       	.word	0x0101;	????	
 136:	00 00       	.word	0x0000;	????	
 138:	00 01       	.word	0x0100;	????	
 13a:	00 00       	.word	0x0000;	????	
 13c:	01 66       	addc	r6,	r1	
 13e:	75 6e       	addc.b	@r14+,	r5	
 140:	63 00       	.word	0x0063;	????	
 142:	00 61       	addc	r1,	r0	
 144:	64 64       	addc.b	@r4,	r4	
 146:	2e 53       	incd	r14		
 148:	00 01       	.word	0x0100;	????	
 14a:	00 00       	.word	0x0000;	????	
 14c:	00 00       	.word	0x0000;	????	
 14e:	03 02       	.word	0x0203;	????	
 150:	2e c3       	bic	#2,	r14	;r3 As==10
 152:	16 2f       	jc	$-466    	;abs 0xff80
 154:	02 02       	.word	0x0202;	????	
 156:	00 01       	.word	0x0100;	????	
 158:	01 4f       	mov	r15,	r1	
 15a:	00 00       	.word	0x0000;	????	
 15c:	00 02       	.word	0x0200;	????	
 15e:	00 22       	jnz	$-1022   	;abs 0xfd60
 160:	00 00       	.word	0x0000;	????	
 162:	00 01       	.word	0x0100;	????	
 164:	01 fb       	and	r11,	r1	
 166:	0e 0d       	.word	0x0d0e;	????	
 168:	00 01       	.word	0x0100;	????	
 16a:	01 01       	.word	0x0101;	????	
 16c:	01 00       	.word	0x0001;	????	
 16e:	00 00       	.word	0x0000;	????	
 170:	01 00       	.word	0x0001;	????	
 172:	00 01       	.word	0x0100;	????	
 174:	66 75       	subc.b	@r5,	r6	
 176:	6e 63       	addc.b	#2,	r14	;r3 As==10
 178:	00 00       	.word	0x0000;	????	
 17a:	64 69       	addc.b	@r9,	r4	
 17c:	76 64       	addc.b	@r4+,	r6	
 17e:	2e 53       	incd	r14		
 180:	00 01       	.word	0x0100;	????	
 182:	00 00       	.word	0x0000;	????	
 184:	00 00       	.word	0x0000;	????	
 186:	03 02       	.word	0x0203;	????	
 188:	32 c3       	bic	#-1,	r2	;r3 As==11
 18a:	16 2f       	jc	$-466    	;abs 0xffb8
 18c:	2f 2f       	jc	$-416    	;abs 0xffec
 18e:	2f 30       	jn	$+96     	;abs 0x1ee
 190:	2f 2f       	jc	$-416    	;abs 0xfff0
 192:	2f 2f       	jc	$-416    	;abs 0xfff2
 194:	2f 30       	jn	$+96     	;abs 0x1f4
 196:	2f 2f       	jc	$-416    	;abs 0xfff6
 198:	2f 2f       	jc	$-416    	;abs 0xfff8
 19a:	2f 2f       	jc	$-416    	;abs 0xfffa
 19c:	30 2f       	jc	$-414    	;abs 0xfffe
 19e:	2f 2f       	jc	$-416    	;abs 0xfffe
 1a0:	2f 30       	jn	$+96     	;abs 0x200
 1a2:	2f 2f       	jc	$-416    	;abs 0x2
 1a4:	30 2f       	jc	$-414    	;abs 0x6
 1a6:	2f 02       	.word	0x022f;	????	
 1a8:	02 00       	.word	0x0002;	????	
 1aa:	01 01       	.word	0x0101;	????	
 1ac:	45 00       	.word	0x0045;	????	
 1ae:	00 00       	.word	0x0000;	????	
 1b0:	02 00       	.word	0x0002;	????	
 1b2:	1c 00       	.word	0x001c;	????	
 1b4:	00 00       	.word	0x0000;	????	
 1b6:	01 01       	.word	0x0101;	????	
 1b8:	fb 0e       	.word	0x0efb;	????	
 1ba:	0d 00       	.word	0x000d;	????	
 1bc:	01 01       	.word	0x0101;	????	
 1be:	01 01       	.word	0x0101;	????	
 1c0:	00 00       	.word	0x0000;	????	
 1c2:	00 01       	.word	0x0100;	????	
 1c4:	00 00       	.word	0x0000;	????	
 1c6:	01 00       	.word	0x0001;	????	
 1c8:	6d 6f       	addc.b	@r15,	r13	
 1ca:	64 2e       	jc	$-822    	;abs 0xfe94
 1cc:	53 00       	.word	0x0053;	????	
 1ce:	00 00       	.word	0x0000;	????	
 1d0:	00 00       	.word	0x0000;	????	
 1d2:	00 03       	.word	0x0300;	????	
 1d4:	02 6c       	addc	r12,	r2	
 1d6:	c3 16       	.word	0x16c3;	????	
 1d8:	2f 2f       	jc	$-416    	;abs 0x38
 1da:	2f 2f       	jc	$-416    	;abs 0x3a
 1dc:	30 2f       	jc	$-414    	;abs 0x3e
 1de:	2f 2f       	jc	$-416    	;abs 0x3e
 1e0:	30 2f       	jc	$-414    	;abs 0x42
 1e2:	2f 2f       	jc	$-416    	;abs 0x42
 1e4:	2f 30       	jn	$+96     	;abs 0x244
 1e6:	2f 2f       	jc	$-416    	;abs 0x46
 1e8:	2f 2f       	jc	$-416    	;abs 0x48
 1ea:	30 2f       	jc	$-414    	;abs 0x4c
 1ec:	2f 30       	jn	$+96     	;abs 0x24c
 1ee:	2f 2f       	jc	$-416    	;abs 0x4e
 1f0:	02 02       	.word	0x0202;	????	
 1f2:	00 01       	.word	0x0100;	????	
 1f4:	01 42       	mov	r2,	r1	
 1f6:	00 00       	.word	0x0000;	????	
 1f8:	00 02       	.word	0x0200;	????	
 1fa:	00 21       	jnz	$+514    	;abs 0x3fc
 1fc:	00 00       	.word	0x0000;	????	
 1fe:	00 01       	.word	0x0100;	????	
 200:	01 fb       	and	r11,	r1	
 202:	0e 0d       	.word	0x0d0e;	????	
 204:	00 01       	.word	0x0100;	????	
 206:	01 01       	.word	0x0101;	????	
 208:	01 00       	.word	0x0001;	????	
 20a:	00 00       	.word	0x0000;	????	
 20c:	01 00       	.word	0x0001;	????	
 20e:	00 01       	.word	0x0100;	????	
 210:	66 75       	subc.b	@r5,	r6	
 212:	6e 63       	addc.b	#2,	r14	;r3 As==10
 214:	00 00       	.word	0x0000;	????	
 216:	6d 75       	subc.b	@r5,	r13	
 218:	6c 2e       	jc	$-806    	;abs 0xfef2
 21a:	53 00       	.word	0x0053;	????	
 21c:	01 00       	.word	0x0001;	????	
 21e:	00 00       	.word	0x0000;	????	
 220:	00 03       	.word	0x0300;	????	
 222:	02 9e       	cmp	r14,	r2	
 224:	c3 16       	.word	0x16c3;	????	
 226:	2f 2f       	jc	$-416    	;abs 0x86
 228:	30 2f       	jc	$-414    	;abs 0x8a
 22a:	2f 2f       	jc	$-416    	;abs 0x8a
 22c:	2f 30       	jn	$+96     	;abs 0x28c
 22e:	2f 2f       	jc	$-416    	;abs 0x8e
 230:	2f 2f       	jc	$-416    	;abs 0x90
 232:	2f 30       	jn	$+96     	;abs 0x292
 234:	2f 2f       	jc	$-416    	;abs 0x94
 236:	02 02       	.word	0x0202;	????	
 238:	00 01       	.word	0x0100;	????	
 23a:	01 48       	mov	r8,	r1	
 23c:	00 00       	.word	0x0000;	????	
 23e:	00 02       	.word	0x0200;	????	
 240:	00 22       	jnz	$-1022   	;abs 0xfe42
 242:	00 00       	.word	0x0000;	????	
 244:	00 01       	.word	0x0100;	????	
 246:	01 fb       	and	r11,	r1	
 248:	0e 0d       	.word	0x0d0e;	????	
 24a:	00 01       	.word	0x0100;	????	
 24c:	01 01       	.word	0x0101;	????	
 24e:	01 00       	.word	0x0001;	????	
 250:	00 00       	.word	0x0000;	????	
 252:	01 00       	.word	0x0001;	????	
 254:	00 01       	.word	0x0100;	????	
 256:	66 75       	subc.b	@r5,	r6	
 258:	6e 63       	addc.b	#2,	r14	;r3 As==10
 25a:	00 00       	.word	0x0000;	????	
 25c:	70 6f       	addc.b	@r15+,	r0	
 25e:	77 72       	subc.b	#8,	r7	;r2 As==11
 260:	2e 53       	incd	r14		
 262:	00 01       	.word	0x0100;	????	
 264:	00 00       	.word	0x0000;	????	
 266:	00 00       	.word	0x0000;	????	
 268:	03 02       	.word	0x0203;	????	
 26a:	c0 c3 16 2f 	bic.b	#0,	12054(r0);r3 As==00, PC rel. 0x3182
 26e:	2f 2f       	jc	$-416    	;abs 0xce
 270:	2f 2f       	jc	$-416    	;abs 0xd0
 272:	2f 2f       	jc	$-416    	;abs 0xd2
 274:	30 2f       	jc	$-414    	;abs 0xd6
 276:	2f 31       	jn	$+608    	;abs 0x4d6
 278:	2f 2f       	jc	$-416    	;abs 0xd8
 27a:	2f 2f       	jc	$-416    	;abs 0xda
 27c:	30 2f       	jc	$-414    	;abs 0xde
 27e:	2f 30       	jn	$+96     	;abs 0x2de
 280:	30 2f       	jc	$-414    	;abs 0xe2
 282:	02 02       	.word	0x0202;	????	
 284:	00 01       	.word	0x0100;	????	
 286:	01 33       	jn	$-508    	;abs 0x8a
 288:	00 00       	.word	0x0000;	????	
 28a:	00 02       	.word	0x0200;	????	
 28c:	00 21       	jnz	$+514    	;abs 0x48e
 28e:	00 00       	.word	0x0000;	????	
 290:	00 01       	.word	0x0100;	????	
 292:	01 fb       	and	r11,	r1	
 294:	0e 0d       	.word	0x0d0e;	????	
 296:	00 01       	.word	0x0100;	????	
 298:	01 01       	.word	0x0101;	????	
 29a:	01 00       	.word	0x0001;	????	
 29c:	00 00       	.word	0x0000;	????	
 29e:	01 00       	.word	0x0001;	????	
 2a0:	00 01       	.word	0x0100;	????	
 2a2:	66 75       	subc.b	@r5,	r6	
 2a4:	6e 63       	addc.b	#2,	r14	;r3 As==10
 2a6:	00 00       	.word	0x0000;	????	
 2a8:	73 75       	.word	0x7573;	????	Illegal as 2-op instr
 2aa:	62 2e       	jc	$-826    	;abs 0xff70
 2ac:	53 00       	.word	0x0053;	????	
 2ae:	01 00       	.word	0x0001;	????	
 2b0:	00 00       	.word	0x0000;	????	
 2b2:	00 03       	.word	0x0300;	????	
 2b4:	02 ec       	xor	r12,	r2	
 2b6:	c3 16       	.word	0x16c3;	????	
 2b8:	2f 02       	.word	0x022f;	????	
 2ba:	02 00       	.word	0x0002;	????	
 2bc:	01 01       	.word	0x0101;	????	
 2be:	37 01       	.word	0x0137;	????	
 2c0:	00 00       	.word	0x0000;	????	
 2c2:	02 00       	.word	0x0002;	????	
 2c4:	7c 00       	.word	0x007c;	????	
 2c6:	00 00       	.word	0x0000;	????	
 2c8:	01 01       	.word	0x0101;	????	
 2ca:	fb 0e       	.word	0x0efb;	????	
 2cc:	0d 00       	.word	0x000d;	????	
 2ce:	01 01       	.word	0x0101;	????	
 2d0:	01 01       	.word	0x0101;	????	
 2d2:	00 00       	.word	0x0000;	????	
 2d4:	00 01       	.word	0x0100;	????	
 2d6:	00 00       	.word	0x0000;	????	
 2d8:	01 2f       	jc	$-508    	;abs 0xdc
 2da:	68 6f       	addc.b	@r15,	r8	
 2dc:	6d 65       	addc.b	@r5,	r13	
 2de:	2f 6c       	addc	@r12,	r15	
 2e0:	33 2f       	jc	$-408    	;abs 0x148
 2e2:	2e 6c       	addc	@r12,	r14	
 2e4:	6f 63       	addc.b	#2,	r15	;r3 As==10
 2e6:	61 6c       	addc.b	@r12,	r1	
 2e8:	2f 65       	addc	@r5,	r15	
 2ea:	6e 65       	addc.b	@r5,	r14	
 2ec:	72 67       	addc.b	@r7+,	r2	
 2ee:	69 61       	addc.b	@r1,	r9	
 2f0:	2f 68       	addc	@r8,	r15	
 2f2:	61 72       	subc.b	#4,	r1	;r2 As==10
 2f4:	64 77       	subc.b	@r7,	r4	
 2f6:	61 72       	subc.b	#4,	r1	;r2 As==10
 2f8:	65 2f       	jc	$-308    	;abs 0x1c4
 2fa:	74 6f       	addc.b	@r15+,	r4	
 2fc:	6f 6c       	addc.b	@r12,	r15	
 2fe:	73 2f       	jc	$-280    	;abs 0x1e6
 300:	6d 73       	subc.b	#2,	r13	;r3 As==10
 302:	70 34       	jge	$+226    	;abs 0x3e4
 304:	33 30       	jn	$+104    	;abs 0x36c
 306:	2f 62       	addc	#4,	r15	;r2 As==10
 308:	69 6e       	addc.b	@r14,	r9	
 30a:	2f 2e       	jc	$-928    	;abs 0xff6a
 30c:	2e 2f       	jc	$-418    	;abs 0x16a
 30e:	6c 69       	addc.b	@r9,	r12	
 310:	62 2f       	jc	$-314    	;abs 0x1d6
 312:	67 63       	addc.b	#2,	r7	;r3 As==10
 314:	63 2f       	jc	$-312    	;abs 0x1dc
 316:	6d 73       	subc.b	#2,	r13	;r3 As==10
 318:	70 34       	jge	$+226    	;abs 0x3fa
 31a:	33 30       	jn	$+104    	;abs 0x382
 31c:	2f 34       	jge	$+96     	;abs 0x37c
 31e:	2e 36       	jge	$-930    	;abs 0xff7c
 320:	2e 33       	jn	$-418    	;abs 0x17e
 322:	2f 69       	addc	@r9,	r15	
 324:	6e 63       	addc.b	#2,	r14	;r3 As==10
 326:	6c 75       	subc.b	@r5,	r12	
 328:	64 65       	addc.b	@r5,	r4	
 32a:	00 00       	.word	0x0000;	????	
 32c:	63 6f       	.word	0x6f63;	????	Illegal as 2-op instr
 32e:	6e 69       	addc.b	@r9,	r14	
 330:	6f 2e       	jc	$-800    	;abs 0x10
 332:	63 00       	.word	0x0063;	????	
 334:	00 00       	.word	0x0000;	????	
 336:	00 73       	sbc	r0		
 338:	74 64       	addc.b	@r4+,	r4	
 33a:	61 72       	subc.b	#4,	r1	;r2 As==10
 33c:	67 2e       	jc	$-816    	;abs 0xc
 33e:	68 00       	.word	0x0068;	????	
 340:	01 00       	.word	0x0001;	????	
 342:	00 00       	.word	0x0000;	????	
 344:	00 03       	.word	0x0300;	????	
 346:	02 f0       	and	r0,	r2	
 348:	c3 03       	.word	0x03c3;	????	
 34a:	d9 00       	.word	0x00d9;	????	
 34c:	01 f6       	and	r6,	r1	
 34e:	00 02       	.word	0x0200;	????	
 350:	04 02       	.word	0x0204;	????	
 352:	9f 00       	.word	0x009f;	????	
 354:	02 04       	.word	0x0402;	????	
 356:	01 06       	.word	0x0601;	????	
 358:	2e 06       	.word	0x062e;	????	
 35a:	bc 4b 4b 00 	mov	@r11+,	75(r12)	;0x004b(r12)
 35e:	02 04       	.word	0x0402;	????	
 360:	02 06       	.word	0x0602;	????	
 362:	2e 00       	.word	0x002e;	????	
 364:	02 04       	.word	0x0402;	????	
 366:	01 66       	addc	r6,	r1	
 368:	06 bb       	bit	r11,	r6	
 36a:	4b d8       	bis.b	r8,	r11	
 36c:	83 03       	.word	0x0383;	????	
 36e:	6c ba       	bit.b	@r10,	r12	
 370:	14 bb 03 42 	bit	16899(r11),r4	;0x4203(r11)
 374:	2e 4d       	mov	@r13,	r14	
 376:	2f 00       	.word	0x002f;	????	
 378:	02 04       	.word	0x0402;	????	
 37a:	01 49       	mov	r9,	r1	
 37c:	69 4d       	mov.b	@r13,	r9	
 37e:	bf f3 83 00 	and	#-1,	131(r15);r3 As==11, 0x0083(r15)
 382:	02 04       	.word	0x0402;	????	
 384:	01 32       	jn	$-1020   	;abs 0xff88
 386:	00 02       	.word	0x0200;	????	
 388:	04 01       	.word	0x0104;	????	
 38a:	08 21       	jnz	$+530    	;abs 0x59c
 38c:	00 02       	.word	0x0200;	????	
 38e:	04 01       	.word	0x0104;	????	
 390:	b8 00       	.word	0x00b8;	????	
 392:	02 04       	.word	0x0402;	????	
 394:	02 06       	.word	0x0602;	????	
 396:	82 06       	.word	0x0682;	????	
 398:	4f 00       	.word	0x004f;	????	
 39a:	02 04       	.word	0x0402;	????	
 39c:	02 03       	.word	0x0302;	????	
 39e:	70 66       	addc.b	@r6+,	r0	
 3a0:	00 02       	.word	0x0200;	????	
 3a2:	04 02       	.word	0x0204;	????	
 3a4:	03 11       	rra	#0		;r3 As==00
 3a6:	82 00       	.word	0x0082;	????	
 3a8:	02 04       	.word	0x0402;	????	
 3aa:	01 06       	.word	0x0601;	????	
 3ac:	66 00       	.word	0x0066;	????	
 3ae:	02 04       	.word	0x0402;	????	
 3b0:	01 06       	.word	0x0601;	????	
 3b2:	49 69       	rlc.b	r9		
 3b4:	bd 69 4b 08 	addc	@r9+,	2123(r13);0x084b(r13)
 3b8:	59 68 7e 6e 	addc.b	28286(r8),r9	;0x6e7e(r8)
 3bc:	03 29       	jnc	$+520    	;abs 0x5c4
 3be:	66 fa       	and.b	@r10,	r6	
 3c0:	2f 67       	addc	@r7,	r15	
 3c2:	02 44       	mov	r4,	r2	
 3c4:	14 bd bb 31 	bit	12731(r13),r4	;0x31bb(r13)
 3c8:	67 00       	.word	0x0067;	????	
 3ca:	02 04       	.word	0x0402;	????	
 3cc:	01 06       	.word	0x0601;	????	
 3ce:	66 06       	.word	0x0666;	????	
 3d0:	f3 da       	bis.b	@r10+,	#1	;r3 As==01
 3d2:	9f 00       	.word	0x009f;	????	
 3d4:	02 04       	.word	0x0402;	????	
 3d6:	01 06       	.word	0x0601;	????	
 3d8:	66 06       	.word	0x0666;	????	
 3da:	08 ad       	dadd	r13,	r8	
 3dc:	b8 31       	jn	$+882    	;abs 0x74e
 3de:	30 67       	addc	@r7+,	r0	
 3e0:	08 21       	jnz	$+530    	;abs 0x5f2
 3e2:	9f d7 03 66 	bis	26115(r7),898(r15);0x6603(r7), 0x0382(r15)
 3e6:	82 03 
 3e8:	23 2e       	jc	$-952    	;abs 0x30
 3ea:	00 02       	.word	0x0200;	????	
 3ec:	04 01       	.word	0x0104;	????	
 3ee:	03 5d       	.word	0x5d03;	????	Illegal as 2-op instr
 3f0:	4a 03       	.word	0x034a;	????	
 3f2:	26 66       	addc	@r6,	r6	
 3f4:	02 0a       	.word	0x0a02;	????	
 3f6:	00 01       	.word	0x0100;	????	
 3f8:	01 3d       	jmp	$+516    	;abs 0x5fc
 3fa:	00 00       	.word	0x0000;	????	
 3fc:	00 02       	.word	0x0200;	????	
 3fe:	00 25       	jz	$+514    	;abs 0x600
 400:	00 00       	.word	0x0000;	????	
 402:	00 01       	.word	0x0100;	????	
 404:	01 fb       	and	r11,	r1	
 406:	0e 0d       	.word	0x0d0e;	????	
 408:	00 01       	.word	0x0100;	????	
 40a:	01 01       	.word	0x0101;	????	
 40c:	01 00       	.word	0x0001;	????	
 40e:	00 00       	.word	0x0000;	????	
 410:	01 00       	.word	0x0001;	????	
 412:	00 01       	.word	0x0100;	????	
 414:	00 63       	adc	r0		
 416:	6f 6e       	addc.b	@r14,	r15	
 418:	69 6f       	addc.b	@r15,	r9	
 41a:	5f 73       	subc.b	#1,	r15	;r3 As==01
 41c:	65 72       	subc.b	#4,	r5	;r2 As==10
 41e:	69 61       	addc.b	@r1,	r9	
 420:	6c 2e       	jc	$-806    	;abs 0xfa
 422:	63 00       	.word	0x0063;	????	
 424:	00 00       	.word	0x0000;	????	
 426:	00 00       	.word	0x0000;	????	
 428:	00 03       	.word	0x0300;	????	
 42a:	02 5a       	add	r10,	r2	
 42c:	c6 03       	.word	0x03c6;	????	
 42e:	17 01       	.word	0x0117;	????	
 430:	13 4b       	.word	0x4b13;	????	Illegal as 2-op instr
 432:	31 13       	reti			;return from interupt
 434:	4b 02       	.word	0x024b;	????	
 436:	02 00       	.word	0x0002;	????	
 438:	01 01       	.word	0x0101;	????	
 43a:	ed 00       	.word	0x00ed;	????	
 43c:	00 00       	.word	0x0000;	????	
 43e:	02 00       	.word	0x0002;	????	
 440:	a1 00       	.word	0x00a1;	????	
 442:	00 00       	.word	0x0000;	????	
 444:	01 01       	.word	0x0101;	????	
 446:	fb 0e       	.word	0x0efb;	????	
 448:	0d 00       	.word	0x000d;	????	
 44a:	01 01       	.word	0x0101;	????	
 44c:	01 01       	.word	0x0101;	????	
 44e:	00 00       	.word	0x0000;	????	
 450:	00 01       	.word	0x0100;	????	
 452:	00 00       	.word	0x0000;	????	
 454:	01 2f       	jc	$-508    	;abs 0x258
 456:	68 6f       	addc.b	@r15,	r8	
 458:	6d 65       	addc.b	@r5,	r13	
 45a:	2f 6c       	addc	@r12,	r15	
 45c:	33 2f       	jc	$-408    	;abs 0x2c4
 45e:	2e 6c       	addc	@r12,	r14	
 460:	6f 63       	addc.b	#2,	r15	;r3 As==10
 462:	61 6c       	addc.b	@r12,	r1	
 464:	2f 65       	addc	@r5,	r15	
 466:	6e 65       	addc.b	@r5,	r14	
 468:	72 67       	addc.b	@r7+,	r2	
 46a:	69 61       	addc.b	@r1,	r9	
 46c:	2f 68       	addc	@r8,	r15	
 46e:	61 72       	subc.b	#4,	r1	;r2 As==10
 470:	64 77       	subc.b	@r7,	r4	
 472:	61 72       	subc.b	#4,	r1	;r2 As==10
 474:	65 2f       	jc	$-308    	;abs 0x340
 476:	74 6f       	addc.b	@r15+,	r4	
 478:	6f 6c       	addc.b	@r12,	r15	
 47a:	73 2f       	jc	$-280    	;abs 0x362
 47c:	6d 73       	subc.b	#2,	r13	;r3 As==10
 47e:	70 34       	jge	$+226    	;abs 0x560
 480:	33 30       	jn	$+104    	;abs 0x4e8
 482:	2f 62       	addc	#4,	r15	;r2 As==10
 484:	69 6e       	addc.b	@r14,	r9	
 486:	2f 2e       	jc	$-928    	;abs 0xe6
 488:	2e 2f       	jc	$-418    	;abs 0x2e6
 48a:	6c 69       	addc.b	@r9,	r12	
 48c:	62 2f       	jc	$-314    	;abs 0x352
 48e:	67 63       	addc.b	#2,	r7	;r3 As==10
 490:	63 2f       	jc	$-312    	;abs 0x358
 492:	6d 73       	subc.b	#2,	r13	;r3 As==10
 494:	70 34       	jge	$+226    	;abs 0x576
 496:	33 30       	jn	$+104    	;abs 0x4fe
 498:	2f 34       	jge	$+96     	;abs 0x4f8
 49a:	2e 36       	jge	$-930    	;abs 0xf8
 49c:	2e 33       	jn	$-418    	;abs 0x2fa
 49e:	2f 2e       	jc	$-928    	;abs 0xfe
 4a0:	2e 2f       	jc	$-418    	;abs 0x2fe
 4a2:	2e 2e       	jc	$-930    	;abs 0x100
 4a4:	2f 2e       	jc	$-928    	;abs 0x104
 4a6:	2e 2f       	jc	$-418    	;abs 0x304
 4a8:	2e 2e       	jc	$-930    	;abs 0x106
 4aa:	2f 6d       	addc	@r13,	r15	
 4ac:	73 70       	.word	0x7073;	????	Illegal as 2-op instr
 4ae:	34 33       	jn	$-406    	;abs 0x318
 4b0:	30 2f       	jc	$-414    	;abs 0x312
 4b2:	69 6e       	addc.b	@r14,	r9	
 4b4:	63 6c       	.word	0x6c63;	????	Illegal as 2-op instr
 4b6:	75 64       	addc.b	@r4+,	r5	
 4b8:	65 00       	.word	0x0065;	????	
 4ba:	00 73       	sbc	r0		
 4bc:	65 72       	subc.b	#4,	r5	;r2 As==10
 4be:	69 61       	addc.b	@r1,	r9	
 4c0:	6c 5f       	add.b	@r15,	r12	
 4c2:	75 73       	subc.b	#-1,	r5	;r3 As==11
 4c4:	63 69       	.word	0x6963;	????	Illegal as 2-op instr
 4c6:	5f 6d 73 70 	addc.b	28787(r13),r15	;0x7073(r13)
 4ca:	34 33       	jn	$-406    	;abs 0x334
 4cc:	30 2e       	jc	$-926    	;abs 0x12e
 4ce:	63 00       	.word	0x0063;	????	
 4d0:	00 00       	.word	0x0000;	????	
 4d2:	00 6d       	addc	r13,	r0	
 4d4:	73 70       	.word	0x7073;	????	Illegal as 2-op instr
 4d6:	34 33       	jn	$-406    	;abs 0x340
 4d8:	30 67       	addc	@r7+,	r0	
 4da:	32 35       	jge	$+614    	;abs 0x740
 4dc:	35 33       	jn	$-404    	;abs 0x348
 4de:	2e 68       	addc	@r8,	r14	
 4e0:	00 01       	.word	0x0100;	????	
 4e2:	00 00       	.word	0x0000;	????	
 4e4:	00 00       	.word	0x0000;	????	
 4e6:	03 02       	.word	0x0203;	????	
 4e8:	66 c6       	bic.b	@r6,	r6	
 4ea:	03 2a       	jnc	$-1016   	;abs 0xf2
 4ec:	01 13       	reti			;return from interupt
 4ee:	67 67       	addc.b	@r7,	r7	
 4f0:	68 03       	.word	0x0368;	????	
 4f2:	0a 08       	.word	0x080a;	????	
 4f4:	ac 02       	.word	0x02ac;	????	
 4f6:	2e 14       	.word	0x142e;	????	
 4f8:	d7 bd bf 02 	bit.b	703(r13),5166(r7);0x02bf(r13), 0x142e(r7)
 4fc:	2e 14 
 4fe:	84 d7 bb bb 	bis	r7,	-17477(r4);0xbbbb(r4)
 502:	da bb d7 d7 	bit.b	-10281(r11),19364(r10);0xd7d7(r11), 0x4ba4(r10)
 506:	a4 4b 
 508:	67 03       	.word	0x0367;	????	
 50a:	4b 2e       	jc	$-872    	;abs 0x1a2
 50c:	13 d7       	.word	0xd713;	????	Illegal as 2-op instr
 50e:	03 36       	jge	$-1016   	;abs 0x116
 510:	2e 13       	reti			;return from interupt
 512:	4b 31       	jn	$+664    	;abs 0x7aa
 514:	00 02       	.word	0x0200;	????	
 516:	04 01       	.word	0x0104;	????	
 518:	13 83       	dec	#0		;r3 As==00
 51a:	4b 31       	jn	$+664    	;abs 0x7b2
 51c:	13 4b       	.word	0x4b13;	????	Illegal as 2-op instr
 51e:	31 00       	.word	0x0031;	????	
 520:	02 04       	.word	0x0402;	????	
 522:	01 13       	reti			;return from interupt
 524:	83 4b       	mov	r11,	#1	;r3 As==01
 526:	02 02       	.word	0x0202;	????	
 528:	00 01       	.word	0x0100;	????	
 52a:	01 78       	subc	r8,	r1	
 52c:	00 00       	.word	0x0000;	????	
 52e:	00 02       	.word	0x0200;	????	
 530:	00 4b       	br	r11		
 532:	00 00       	.word	0x0000;	????	
 534:	00 01       	.word	0x0100;	????	
 536:	01 fb       	and	r11,	r1	
 538:	0e 0d       	.word	0x0d0e;	????	
 53a:	00 01       	.word	0x0100;	????	
 53c:	01 01       	.word	0x0101;	????	
 53e:	01 00       	.word	0x0001;	????	
 540:	00 00       	.word	0x0000;	????	
 542:	01 00       	.word	0x0001;	????	
 544:	00 01       	.word	0x0100;	????	
 546:	2e 2e       	jc	$-930    	;abs 0x1a4
 548:	2f 2e       	jc	$-928    	;abs 0x1a8
 54a:	2e 2f       	jc	$-418    	;abs 0x3a8
 54c:	2e 2e       	jc	$-930    	;abs 0x1aa
 54e:	2f 2e       	jc	$-928    	;abs 0x1ae
 550:	2e 2f       	jc	$-418    	;abs 0x3ae
 552:	67 63       	addc.b	#2,	r7	;r3 As==10
 554:	63 2f       	jc	$-312    	;abs 0x41c
 556:	6c 69       	addc.b	@r9,	r12	
 558:	62 67       	addc.b	@r7,	r2	
 55a:	63 63       	.word	0x6363;	????	Illegal as 2-op instr
 55c:	2f 2e       	jc	$-928    	;abs 0x1bc
 55e:	2e 2f       	jc	$-418    	;abs 0x3bc
 560:	67 63       	addc.b	#2,	r7	;r3 As==10
 562:	63 2f       	jc	$-312    	;abs 0x42a
 564:	63 6f       	.word	0x6f63;	????	Illegal as 2-op instr
 566:	6e 66       	addc.b	@r6,	r14	
 568:	69 67       	addc.b	@r7,	r9	
 56a:	2f 6d       	addc	@r13,	r15	
 56c:	73 70       	.word	0x7073;	????	Illegal as 2-op instr
 56e:	34 33       	jn	$-406    	;abs 0x3d8
 570:	30 00       	.word	0x0030;	????	
 572:	00 6c       	addc	r12,	r0	
 574:	69 62       	addc.b	#4,	r9	;r2 As==10
 576:	67 63       	addc.b	#2,	r7	;r3 As==10
 578:	63 2e       	jc	$-824    	;abs 0x240
 57a:	53 00       	.word	0x0053;	????	
 57c:	01 00       	.word	0x0001;	????	
 57e:	00 00       	.word	0x0000;	????	
 580:	00 03       	.word	0x0300;	????	
 582:	02 c8       	bic	r8,	r2	
 584:	c7 03       	.word	0x03c7;	????	
 586:	c6 04       	.word	0x04c6;	????	
 588:	01 2f       	jc	$-508    	;abs 0x38c
 58a:	2f 2f       	jc	$-416    	;abs 0x3ea
 58c:	4b 2f       	jc	$-360    	;abs 0x424
 58e:	2f 2f       	jc	$-416    	;abs 0x3ee
 590:	2f 2f       	jc	$-416    	;abs 0x3f0
 592:	2f 2f       	jc	$-416    	;abs 0x3f2
 594:	2f 4b       	mov	@r11,	r15	
 596:	2f 2f       	jc	$-416    	;abs 0x3f6
 598:	2f 2f       	jc	$-416    	;abs 0x3f8
 59a:	2f 2f       	jc	$-416    	;abs 0x3fa
 59c:	2f 2f       	jc	$-416    	;abs 0x3fc
 59e:	2f 34       	jge	$+96     	;abs 0x5fe
 5a0:	4b 2f       	jc	$-360    	;abs 0x438
 5a2:	02 02       	.word	0x0202;	????	
 5a4:	00 01       	.word	0x0100;	????	
 5a6:	01 6d       	addc	r13,	r1	
 5a8:	00 00       	.word	0x0000;	????	
 5aa:	00 02       	.word	0x0200;	????	
 5ac:	00 4b       	br	r11		
 5ae:	00 00       	.word	0x0000;	????	
 5b0:	00 01       	.word	0x0100;	????	
 5b2:	01 fb       	and	r11,	r1	
 5b4:	0e 0d       	.word	0x0d0e;	????	
 5b6:	00 01       	.word	0x0100;	????	
 5b8:	01 01       	.word	0x0101;	????	
 5ba:	01 00       	.word	0x0001;	????	
 5bc:	00 00       	.word	0x0000;	????	
 5be:	01 00       	.word	0x0001;	????	
 5c0:	00 01       	.word	0x0100;	????	
 5c2:	2e 2e       	jc	$-930    	;abs 0x220
 5c4:	2f 2e       	jc	$-928    	;abs 0x224
 5c6:	2e 2f       	jc	$-418    	;abs 0x424
 5c8:	2e 2e       	jc	$-930    	;abs 0x226
 5ca:	2f 2e       	jc	$-928    	;abs 0x22a
 5cc:	2e 2f       	jc	$-418    	;abs 0x42a
 5ce:	67 63       	addc.b	#2,	r7	;r3 As==10
 5d0:	63 2f       	jc	$-312    	;abs 0x498
 5d2:	6c 69       	addc.b	@r9,	r12	
 5d4:	62 67       	addc.b	@r7,	r2	
 5d6:	63 63       	.word	0x6363;	????	Illegal as 2-op instr
 5d8:	2f 2e       	jc	$-928    	;abs 0x238
 5da:	2e 2f       	jc	$-418    	;abs 0x438
 5dc:	67 63       	addc.b	#2,	r7	;r3 As==10
 5de:	63 2f       	jc	$-312    	;abs 0x4a6
 5e0:	63 6f       	.word	0x6f63;	????	Illegal as 2-op instr
 5e2:	6e 66       	addc.b	@r6,	r14	
 5e4:	69 67       	addc.b	@r7,	r9	
 5e6:	2f 6d       	addc	@r13,	r15	
 5e8:	73 70       	.word	0x7073;	????	Illegal as 2-op instr
 5ea:	34 33       	jn	$-406    	;abs 0x454
 5ec:	30 00       	.word	0x0030;	????	
 5ee:	00 6c       	addc	r12,	r0	
 5f0:	69 62       	addc.b	#4,	r9	;r2 As==10
 5f2:	67 63       	addc.b	#2,	r7	;r3 As==10
 5f4:	63 2e       	jc	$-824    	;abs 0x2bc
 5f6:	53 00       	.word	0x0053;	????	
 5f8:	01 00       	.word	0x0001;	????	
 5fa:	00 00       	.word	0x0000;	????	
 5fc:	00 03       	.word	0x0300;	????	
 5fe:	02 02       	.word	0x0202;	????	
 600:	c8 03       	.word	0x03c8;	????	
 602:	a4 04       	.word	0x04a4;	????	
 604:	01 4b       	mov	r11,	r1	
 606:	2f 2f       	jc	$-416    	;abs 0x466
 608:	2f 2f       	jc	$-416    	;abs 0x468
 60a:	2f 2f       	jc	$-416    	;abs 0x46a
 60c:	2f 2f       	jc	$-416    	;abs 0x46c
 60e:	2f 2f       	jc	$-416    	;abs 0x46e
 610:	34 4b       	mov	@r11+,	r4	
 612:	2f 02       	.word	0x022f;	????	
 614:	02 00       	.word	0x0002;	????	
 616:	01 01       	.word	0x0101;	????	
 618:	40 00       	.word	0x0040;	????	
 61a:	00 00       	.word	0x0000;	????	
 61c:	02 00       	.word	0x0002;	????	
 61e:	27 00       	.word	0x0027;	????	
 620:	00 00       	.word	0x0000;	????	
 622:	01 01       	.word	0x0101;	????	
 624:	fb 0e       	.word	0x0efb;	????	
 626:	0d 00       	.word	0x000d;	????	
 628:	01 01       	.word	0x0101;	????	
 62a:	01 01       	.word	0x0101;	????	
 62c:	00 00       	.word	0x0000;	????	
 62e:	00 01       	.word	0x0100;	????	
 630:	00 00       	.word	0x0000;	????	
 632:	01 2e       	jc	$-1020   	;abs 0x236
 634:	2f 73       	subc	#2,	r15	;r3 As==10
 636:	74 72       	subc.b	#8,	r4	;r2 As==11
 638:	69 6e       	addc.b	@r14,	r9	
 63a:	67 00       	.word	0x0067;	????	
 63c:	00 69       	addc	r9,	r0	
 63e:	6e 64       	addc.b	@r4,	r14	
 640:	65 78       	subc.b	@r8,	r5	
 642:	2e 63       	addc	#2,	r14	;r3 As==10
 644:	00 01       	.word	0x0100;	????	
 646:	00 00       	.word	0x0000;	????	
 648:	00 00       	.word	0x0000;	????	
 64a:	03 02       	.word	0x0203;	????	
 64c:	24 c8       	bic	@r8,	r4	
 64e:	03 28       	jnc	$+8      	;abs 0x656
 650:	01 15       	.word	0x1501;	????	
 652:	68 46       	mov.b	@r6,	r8	
 654:	34 2d       	jc	$+618    	;abs 0x8be
 656:	31 02       	.word	0x0231;	????	
 658:	02 00       	.word	0x0002;	????	
 65a:	01 01       	.word	0x0101;	????	
 65c:	e4 00       	.word	0x00e4;	????	
 65e:	00 00       	.word	0x0000;	????	
 660:	02 00       	.word	0x0002;	????	
 662:	92 00       	.word	0x0092;	????	
 664:	00 00       	.word	0x0000;	????	
 666:	01 01       	.word	0x0101;	????	
 668:	fb 0e       	.word	0x0efb;	????	
 66a:	0d 00       	.word	0x000d;	????	
 66c:	01 01       	.word	0x0101;	????	
 66e:	01 01       	.word	0x0101;	????	
 670:	00 00       	.word	0x0000;	????	
 672:	00 01       	.word	0x0100;	????	
 674:	00 00       	.word	0x0000;	????	
 676:	01 2e       	jc	$-1020   	;abs 0x27a
 678:	2f 73       	subc	#2,	r15	;r3 As==10
 67a:	74 72       	subc.b	#8,	r4	;r2 As==11
 67c:	69 6e       	addc.b	@r14,	r9	
 67e:	67 00       	.word	0x0067;	????	
 680:	2e 2f       	jc	$-418    	;abs 0x4de
 682:	2e 2e       	jc	$-930    	;abs 0x2e0
 684:	2f 69       	addc	@r9,	r15	
 686:	6e 63       	addc.b	#2,	r14	;r3 As==10
 688:	6c 75       	subc.b	@r5,	r12	
 68a:	64 65       	addc.b	@r5,	r4	
 68c:	2f 73       	subc	#2,	r15	;r3 As==10
 68e:	79 73       	subc.b	#-1,	r9	;r3 As==11
 690:	00 2f       	jc	$-510    	;abs 0x492
 692:	68 6f       	addc.b	@r15,	r8	
 694:	6d 65       	addc.b	@r5,	r13	
 696:	2f 72       	subc	#4,	r15	;r2 As==10
 698:	6f 62       	addc.b	#4,	r15	;r2 As==10
 69a:	65 72       	subc.b	#4,	r5	;r2 As==10
 69c:	74 69       	addc.b	@r9+,	r4	
 69e:	6e 61       	addc.b	@r1,	r14	
 6a0:	6e 74       	subc.b	@r4,	r14	
 6a2:	2f 6f       	addc	@r15,	r15	
 6a4:	70 74       	subc.b	@r4+,	r0	
 6a6:	2f 6d       	addc	@r13,	r15	
 6a8:	73 70       	.word	0x7073;	????	Illegal as 2-op instr
 6aa:	67 63       	addc.b	#2,	r7	;r3 As==10
 6ac:	63 5f       	.word	0x5f63;	????	Illegal as 2-op instr
 6ae:	65 6e       	addc.b	@r14,	r5	
 6b0:	65 72       	subc.b	#4,	r5	;r2 As==10
 6b2:	67 69       	addc.b	@r9,	r7	
 6b4:	61 2f       	jc	$-316    	;abs 0x578
 6b6:	6c 69       	addc.b	@r9,	r12	
 6b8:	62 2f       	jc	$-314    	;abs 0x57e
 6ba:	67 63       	addc.b	#2,	r7	;r3 As==10
 6bc:	63 2f       	jc	$-312    	;abs 0x584
 6be:	6d 73       	subc.b	#2,	r13	;r3 As==10
 6c0:	70 34       	jge	$+226    	;abs 0x7a2
 6c2:	33 30       	jn	$+104    	;abs 0x72a
 6c4:	2f 34       	jge	$+96     	;abs 0x724
 6c6:	2e 36       	jge	$-930    	;abs 0x324
 6c8:	2e 33       	jn	$-418    	;abs 0x526
 6ca:	2f 69       	addc	@r9,	r15	
 6cc:	6e 63       	addc.b	#2,	r14	;r3 As==10
 6ce:	6c 75       	subc.b	@r5,	r12	
 6d0:	64 65       	addc.b	@r5,	r4	
 6d2:	00 00       	.word	0x0000;	????	
 6d4:	6d 65       	addc.b	@r5,	r13	
 6d6:	6d 73       	subc.b	#2,	r13	;r3 As==10
 6d8:	65 74       	subc.b	@r4,	r5	
 6da:	2e 63       	addc	#2,	r14	;r3 As==10
 6dc:	00 01       	.word	0x0100;	????	
 6de:	00 00       	.word	0x0000;	????	
 6e0:	74 79       	subc.b	@r9+,	r4	
 6e2:	70 65       	addc.b	@r5+,	r0	
 6e4:	73 2e       	jc	$-792    	;abs 0x3cc
 6e6:	68 00       	.word	0x0068;	????	
 6e8:	02 00       	.word	0x0002;	????	
 6ea:	00 73       	sbc	r0		
 6ec:	74 64       	addc.b	@r4+,	r4	
 6ee:	64 65       	addc.b	@r5,	r4	
 6f0:	66 2e       	jc	$-818    	;abs 0x3be
 6f2:	68 00       	.word	0x0068;	????	
 6f4:	03 00       	.word	0x0003;	????	
 6f6:	00 00       	.word	0x0000;	????	
 6f8:	00 03       	.word	0x0300;	????	
 6fa:	02 36       	jge	$-1018   	;abs 0x300
 6fc:	c8 03       	.word	0x03c8;	????	
 6fe:	3d 01       	.word	0x013d;	????	
 700:	03 15       	.word	0x1503;	????	
 702:	82 00       	.word	0x0082;	????	
 704:	02 04       	.word	0x0402;	????	
 706:	01 06       	.word	0x0601;	????	
 708:	66 06       	.word	0x0666;	????	
 70a:	4e 67       	addc.b	r7,	r14	
 70c:	00 02       	.word	0x0200;	????	
 70e:	04 01       	.word	0x0104;	????	
 710:	2b 03       	.word	0x032b;	????	
 712:	09 66       	addc	r6,	r9	
 714:	84 03       	.word	0x0384;	????	
 716:	0a 66       	addc	r6,	r10	
 718:	4d 31       	jn	$+668    	;abs 0x9b4
 71a:	03 7a       	.word	0x7a03;	????	Illegal as 2-op instr
 71c:	9e 03       	.word	0x039e;	????	
 71e:	0c 2e       	jc	$-998    	;abs 0x338
 720:	00 02       	.word	0x0200;	????	
 722:	04 01       	.word	0x0104;	????	
 724:	a1 00       	.word	0x00a1;	????	
 726:	02 04       	.word	0x0402;	????	
 728:	01 4b       	mov	r11,	r1	
 72a:	00 02       	.word	0x0200;	????	
 72c:	04 01       	.word	0x0104;	????	
 72e:	30 03       	.word	0x0330;	????	
 730:	bd 7f 4a 03 	subc	@r15+,	842(r13);0x034a(r13)
 734:	c3 00       	.word	0x00c3;	????	
 736:	2e 31       	jn	$+606    	;abs 0x994
 738:	2f 00       	.word	0x002f;	????	
 73a:	02 04       	.word	0x0402;	????	
 73c:	01 31       	jn	$+516    	;abs 0x940
 73e:	4e 02       	.word	0x024e;	????	
 740:	0a 00       	.word	0x000a;	????	
 742:	01 01       	.word	0x0101;	????	
 744:	4b 00       	.word	0x004b;	????	
 746:	00 00       	.word	0x0000;	????	
 748:	02 00       	.word	0x0002;	????	
 74a:	28 00       	.word	0x0028;	????	
 74c:	00 00       	.word	0x0000;	????	
 74e:	01 01       	.word	0x0101;	????	
 750:	fb 0e       	.word	0x0efb;	????	
 752:	0d 00       	.word	0x000d;	????	
 754:	01 01       	.word	0x0101;	????	
 756:	01 01       	.word	0x0101;	????	
 758:	00 00       	.word	0x0000;	????	
 75a:	00 01       	.word	0x0100;	????	
 75c:	00 00       	.word	0x0000;	????	
 75e:	01 2e       	jc	$-1020   	;abs 0x362
 760:	2f 73       	subc	#2,	r15	;r3 As==10
 762:	74 72       	subc.b	#8,	r4	;r2 As==11
 764:	69 6e       	addc.b	@r14,	r9	
 766:	67 00       	.word	0x0067;	????	
 768:	00 73       	sbc	r0		
 76a:	74 72       	subc.b	#8,	r4	;r2 As==11
 76c:	73 65       	.word	0x6573;	????	Illegal as 2-op instr
 76e:	70 2e       	jc	$-798    	;abs 0x450
 770:	63 00       	.word	0x0063;	????	
 772:	01 00       	.word	0x0001;	????	
 774:	00 00       	.word	0x0000;	????	
 776:	00 03       	.word	0x0300;	????	
 778:	02 a0       	dadd	r0,	r2	
 77a:	c8 03       	.word	0x03c8;	????	
 77c:	2f 01       	.word	0x012f;	????	
 77e:	6c 86       	sub.b	@r6,	r12	
 780:	4b 31       	jn	$+664    	;abs 0xa18
 782:	84 4d 64 31 	mov	r13,	12644(r4);0x3164(r4)
 786:	4b 4d       	mov.b	r13,	r11	
 788:	03 6f       	.word	0x6f03;	????	Illegal as 2-op instr
 78a:	66 03       	.word	0x0366;	????	
 78c:	14 2e       	jc	$-982    	;abs 0x3b6
 78e:	02 08       	.word	0x0802;	????	
 790:	00 01       	.word	0x0100;	????	
 792:	01 6a       	addc	r10,	r1	
 794:	00 00       	.word	0x0000;	????	
 796:	00 02       	.word	0x0200;	????	
 798:	00 26       	jz	$-1022   	;abs 0x39a
 79a:	00 00       	.word	0x0000;	????	
 79c:	00 01       	.word	0x0100;	????	
 79e:	01 fb       	and	r11,	r1	
 7a0:	0e 0d       	.word	0x0d0e;	????	
 7a2:	00 01       	.word	0x0100;	????	
 7a4:	01 01       	.word	0x0101;	????	
 7a6:	01 00       	.word	0x0001;	????	
 7a8:	00 00       	.word	0x0000;	????	
 7aa:	01 00       	.word	0x0001;	????	
 7ac:	00 01       	.word	0x0100;	????	
 7ae:	2e 2f       	jc	$-418    	;abs 0x60c
 7b0:	73 74       	.word	0x7473;	????	Illegal as 2-op instr
 7b2:	64 6c       	addc.b	@r12,	r4	
 7b4:	69 62       	addc.b	#4,	r9	;r2 As==10
 7b6:	00 00       	.word	0x0000;	????	
 7b8:	61 74       	subc.b	@r4,	r1	
 7ba:	6f 69       	addc.b	@r9,	r15	
 7bc:	2e 63       	addc	#2,	r14	;r3 As==10
 7be:	00 01       	.word	0x0100;	????	
 7c0:	00 00       	.word	0x0000;	????	
 7c2:	00 00       	.word	0x0000;	????	
 7c4:	03 02       	.word	0x0203;	????	
 7c6:	e0 c8 18 4e 	bic.b	@r8,	19992(r0);PC rel. 0x55e0
 7ca:	00 02       	.word	0x0200;	????	
 7cc:	04 01       	.word	0x0104;	????	
 7ce:	33 00       	.word	0x0033;	????	
 7d0:	02 04       	.word	0x0402;	????	
 7d2:	01 29       	jnc	$+516    	;abs 0x9d6
 7d4:	83 67       	addc	r7,	#1	;r3 As==01
 7d6:	67 67       	addc.b	@r7,	r7	
 7d8:	67 68       	addc.b	@r8,	r7	
 7da:	69 2d       	jc	$+724    	;abs 0xaae
 7dc:	4d 00       	.word	0x004d;	????	
 7de:	02 04       	.word	0x0402;	????	
 7e0:	01 06       	.word	0x0601;	????	
 7e2:	66 06       	.word	0x0666;	????	
 7e4:	03 71       	.word	0x7103;	????	Illegal as 2-op instr
 7e6:	2e 03       	.word	0x032e;	????	
 7e8:	11 2e       	jc	$-988    	;abs 0x40c
 7ea:	f6 bc d7 9f 	bit.b	@r12+,	-24617(r6);0x9fd7(r6)
 7ee:	30 00       	.word	0x0030;	????	
 7f0:	02 04       	.word	0x0402;	????	
 7f2:	01 06       	.word	0x0601;	????	
 7f4:	4a 06       	.word	0x064a;	????	
 7f6:	03 76       	.word	0x7603;	????	Illegal as 2-op instr
 7f8:	66 03       	.word	0x0366;	????	
 7fa:	0d 2e       	jc	$-996    	;abs 0x416
 7fc:	02 04       	.word	0x0402;	????	
 7fe:	00 01       	.word	0x0100;	????	
 800:	01 52       	add	r2,	r1	
 802:	00 00       	.word	0x0000;	????	
 804:	00 02       	.word	0x0200;	????	
 806:	00 3c       	jmp	$+2      	;abs 0x808
 808:	00 00       	.word	0x0000;	????	
 80a:	00 01       	.word	0x0100;	????	
 80c:	01 fb       	and	r11,	r1	
 80e:	0e 0d       	.word	0x0d0e;	????	
 810:	00 01       	.word	0x0100;	????	
 812:	01 01       	.word	0x0101;	????	
 814:	01 00       	.word	0x0001;	????	
 816:	00 00       	.word	0x0000;	????	
 818:	01 00       	.word	0x0001;	????	
 81a:	00 01       	.word	0x0100;	????	
 81c:	2e 2e       	jc	$-930    	;abs 0x47a
 81e:	2f 2e       	jc	$-928    	;abs 0x47e
 820:	2e 2f       	jc	$-418    	;abs 0x67e
 822:	2e 2e       	jc	$-930    	;abs 0x480
 824:	2f 67       	addc	@r7,	r15	
 826:	63 63       	.word	0x6363;	????	Illegal as 2-op instr
 828:	2f 67       	addc	@r7,	r15	
 82a:	63 63       	.word	0x6363;	????	Illegal as 2-op instr
 82c:	2f 63       	addc	#2,	r15	;r3 As==10
 82e:	6f 6e       	addc.b	@r14,	r15	
 830:	66 69       	addc.b	@r9,	r6	
 832:	67 2f       	jc	$-304    	;abs 0x702
 834:	6d 73       	subc.b	#2,	r13	;r3 As==10
 836:	70 34       	jge	$+226    	;abs 0x918
 838:	33 30       	jn	$+104    	;abs 0x8a0
 83a:	00 00       	.word	0x0000;	????	
 83c:	63 72       	.word	0x7263;	????	Illegal as 2-op instr
 83e:	74 30       	jn	$+234    	;abs 0x928
 840:	2e 53       	incd	r14		
 842:	00 01       	.word	0x0100;	????	
 844:	00 00       	.word	0x0000;	????	
 846:	00 00       	.word	0x0000;	????	
 848:	03 02       	.word	0x0203;	????	
 84a:	00 c0       	bic	r0,	r0	
 84c:	03 e8       	.word	0xe803;	????	Illegal as 2-op instr
 84e:	00 01       	.word	0x0100;	????	
 850:	4b 4b       	mov.b	r11,	r11	
 852:	02 04       	.word	0x0402;	????	
 854:	00 01       	.word	0x0100;	????	
 856:	01 50       	add	r0,	r1	
 858:	00 00       	.word	0x0000;	????	
 85a:	00 02       	.word	0x0200;	????	
 85c:	00 3c       	jmp	$+2      	;abs 0x85e
 85e:	00 00       	.word	0x0000;	????	
 860:	00 01       	.word	0x0100;	????	
 862:	01 fb       	and	r11,	r1	
 864:	0e 0d       	.word	0x0d0e;	????	
 866:	00 01       	.word	0x0100;	????	
 868:	01 01       	.word	0x0101;	????	
 86a:	01 00       	.word	0x0001;	????	
 86c:	00 00       	.word	0x0000;	????	
 86e:	01 00       	.word	0x0001;	????	
 870:	00 01       	.word	0x0100;	????	
 872:	2e 2e       	jc	$-930    	;abs 0x4d0
 874:	2f 2e       	jc	$-928    	;abs 0x4d4
 876:	2e 2f       	jc	$-418    	;abs 0x6d4
 878:	2e 2e       	jc	$-930    	;abs 0x4d6
 87a:	2f 67       	addc	@r7,	r15	
 87c:	63 63       	.word	0x6363;	????	Illegal as 2-op instr
 87e:	2f 67       	addc	@r7,	r15	
 880:	63 63       	.word	0x6363;	????	Illegal as 2-op instr
 882:	2f 63       	addc	#2,	r15	;r3 As==10
 884:	6f 6e       	addc.b	@r14,	r15	
 886:	66 69       	addc.b	@r9,	r6	
 888:	67 2f       	jc	$-304    	;abs 0x758
 88a:	6d 73       	subc.b	#2,	r13	;r3 As==10
 88c:	70 34       	jge	$+226    	;abs 0x96e
 88e:	33 30       	jn	$+104    	;abs 0x8f6
 890:	00 00       	.word	0x0000;	????	
 892:	63 72       	.word	0x7263;	????	Illegal as 2-op instr
 894:	74 30       	jn	$+234    	;abs 0x97e
 896:	2e 53       	incd	r14		
 898:	00 01       	.word	0x0100;	????	
 89a:	00 00       	.word	0x0000;	????	
 89c:	00 00       	.word	0x0000;	????	
 89e:	03 02       	.word	0x0203;	????	
 8a0:	0c c0       	bic	r0,	r12	
 8a2:	03 99       	.word	0x9903;	????	Illegal as 2-op instr
 8a4:	01 01       	.word	0x0101;	????	
 8a6:	02 04       	.word	0x0402;	????	
 8a8:	00 01       	.word	0x0100;	????	
 8aa:	01 56       	add	r6,	r1	
 8ac:	00 00       	.word	0x0000;	????	
 8ae:	00 02       	.word	0x0200;	????	
 8b0:	00 3c       	jmp	$+2      	;abs 0x8b2
 8b2:	00 00       	.word	0x0000;	????	
 8b4:	00 01       	.word	0x0100;	????	
 8b6:	01 fb       	and	r11,	r1	
 8b8:	0e 0d       	.word	0x0d0e;	????	
 8ba:	00 01       	.word	0x0100;	????	
 8bc:	01 01       	.word	0x0101;	????	
 8be:	01 00       	.word	0x0001;	????	
 8c0:	00 00       	.word	0x0000;	????	
 8c2:	01 00       	.word	0x0001;	????	
 8c4:	00 01       	.word	0x0100;	????	
 8c6:	2e 2e       	jc	$-930    	;abs 0x524
 8c8:	2f 2e       	jc	$-928    	;abs 0x528
 8ca:	2e 2f       	jc	$-418    	;abs 0x728
 8cc:	2e 2e       	jc	$-930    	;abs 0x52a
 8ce:	2f 67       	addc	@r7,	r15	
 8d0:	63 63       	.word	0x6363;	????	Illegal as 2-op instr
 8d2:	2f 67       	addc	@r7,	r15	
 8d4:	63 63       	.word	0x6363;	????	Illegal as 2-op instr
 8d6:	2f 63       	addc	#2,	r15	;r3 As==10
 8d8:	6f 6e       	addc.b	@r14,	r15	
 8da:	66 69       	addc.b	@r9,	r6	
 8dc:	67 2f       	jc	$-304    	;abs 0x7ac
 8de:	6d 73       	subc.b	#2,	r13	;r3 As==10
 8e0:	70 34       	jge	$+226    	;abs 0x9c2
 8e2:	33 30       	jn	$+104    	;abs 0x94a
 8e4:	00 00       	.word	0x0000;	????	
 8e6:	63 72       	.word	0x7263;	????	Illegal as 2-op instr
 8e8:	74 30       	jn	$+234    	;abs 0x9d2
 8ea:	2e 53       	incd	r14		
 8ec:	00 01       	.word	0x0100;	????	
 8ee:	00 00       	.word	0x0000;	????	
 8f0:	00 00       	.word	0x0000;	????	
 8f2:	03 02       	.word	0x0203;	????	
 8f4:	10 c0 03 bc 	bic	-17405(r0),r0	;PC rel. 0xc4f9
 8f8:	01 01       	.word	0x0101;	????	
 8fa:	4b 2f       	jc	$-360    	;abs 0x792
 8fc:	30 67       	addc	@r7+,	r0	
 8fe:	2f 67       	addc	@r7,	r15	
 900:	02 02       	.word	0x0202;	????	
 902:	00 01       	.word	0x0100;	????	
 904:	01 56       	add	r6,	r1	
 906:	00 00       	.word	0x0000;	????	
 908:	00 02       	.word	0x0200;	????	
 90a:	00 3c       	jmp	$+2      	;abs 0x90c
 90c:	00 00       	.word	0x0000;	????	
 90e:	00 01       	.word	0x0100;	????	
 910:	01 fb       	and	r11,	r1	
 912:	0e 0d       	.word	0x0d0e;	????	
 914:	00 01       	.word	0x0100;	????	
 916:	01 01       	.word	0x0101;	????	
 918:	01 00       	.word	0x0001;	????	
 91a:	00 00       	.word	0x0000;	????	
 91c:	01 00       	.word	0x0001;	????	
 91e:	00 01       	.word	0x0100;	????	
 920:	2e 2e       	jc	$-930    	;abs 0x57e
 922:	2f 2e       	jc	$-928    	;abs 0x582
 924:	2e 2f       	jc	$-418    	;abs 0x782
 926:	2e 2e       	jc	$-930    	;abs 0x584
 928:	2f 67       	addc	@r7,	r15	
 92a:	63 63       	.word	0x6363;	????	Illegal as 2-op instr
 92c:	2f 67       	addc	@r7,	r15	
 92e:	63 63       	.word	0x6363;	????	Illegal as 2-op instr
 930:	2f 63       	addc	#2,	r15	;r3 As==10
 932:	6f 6e       	addc.b	@r14,	r15	
 934:	66 69       	addc.b	@r9,	r6	
 936:	67 2f       	jc	$-304    	;abs 0x806
 938:	6d 73       	subc.b	#2,	r13	;r3 As==10
 93a:	70 34       	jge	$+226    	;abs 0xa1c
 93c:	33 30       	jn	$+104    	;abs 0x9a4
 93e:	00 00       	.word	0x0000;	????	
 940:	63 72       	.word	0x7263;	????	Illegal as 2-op instr
 942:	74 30       	jn	$+234    	;abs 0xa2c
 944:	2e 53       	incd	r14		
 946:	00 01       	.word	0x0100;	????	
 948:	00 00       	.word	0x0000;	????	
 94a:	00 00       	.word	0x0000;	????	
 94c:	03 02       	.word	0x0203;	????	
 94e:	28 c0       	bic	@r0,	r8	
 950:	03 d6       	.word	0xd603;	????	Illegal as 2-op instr
 952:	01 01       	.word	0x0101;	????	
 954:	4b 2f       	jc	$-360    	;abs 0x7ec
 956:	30 67       	addc	@r7+,	r0	
 958:	2f 4b       	mov	@r11,	r15	
 95a:	02 02       	.word	0x0202;	????	
 95c:	00 01       	.word	0x0100;	????	
 95e:	01 51       	rla	r1		
 960:	00 00       	.word	0x0000;	????	
 962:	00 02       	.word	0x0200;	????	
 964:	00 3c       	jmp	$+2      	;abs 0x966
 966:	00 00       	.word	0x0000;	????	
 968:	00 01       	.word	0x0100;	????	
 96a:	01 fb       	and	r11,	r1	
 96c:	0e 0d       	.word	0x0d0e;	????	
 96e:	00 01       	.word	0x0100;	????	
 970:	01 01       	.word	0x0101;	????	
 972:	01 00       	.word	0x0001;	????	
 974:	00 00       	.word	0x0000;	????	
 976:	01 00       	.word	0x0001;	????	
 978:	00 01       	.word	0x0100;	????	
 97a:	2e 2e       	jc	$-930    	;abs 0x5d8
 97c:	2f 2e       	jc	$-928    	;abs 0x5dc
 97e:	2e 2f       	jc	$-418    	;abs 0x7dc
 980:	2e 2e       	jc	$-930    	;abs 0x5de
 982:	2f 67       	addc	@r7,	r15	
 984:	63 63       	.word	0x6363;	????	Illegal as 2-op instr
 986:	2f 67       	addc	@r7,	r15	
 988:	63 63       	.word	0x6363;	????	Illegal as 2-op instr
 98a:	2f 63       	addc	#2,	r15	;r3 As==10
 98c:	6f 6e       	addc.b	@r14,	r15	
 98e:	66 69       	addc.b	@r9,	r6	
 990:	67 2f       	jc	$-304    	;abs 0x860
 992:	6d 73       	subc.b	#2,	r13	;r3 As==10
 994:	70 34       	jge	$+226    	;abs 0xa76
 996:	33 30       	jn	$+104    	;abs 0x9fe
 998:	00 00       	.word	0x0000;	????	
 99a:	63 72       	.word	0x7263;	????	Illegal as 2-op instr
 99c:	74 30       	jn	$+234    	;abs 0xa86
 99e:	2e 53       	incd	r14		
 9a0:	00 01       	.word	0x0100;	????	
 9a2:	00 00       	.word	0x0000;	????	
 9a4:	00 00       	.word	0x0000;	????	
 9a6:	03 02       	.word	0x0203;	????	
 9a8:	24 c3       	bic	#2,	r4	;r3 As==10
 9aa:	03 fe       	.word	0xfe03;	????	Illegal as 2-op instr
 9ac:	01 01       	.word	0x0101;	????	
 9ae:	4b 02       	.word	0x024b;	????	
 9b0:	02 00       	.word	0x0002;	????	
 9b2:	01 01       	.word	0x0101;	????	
 9b4:	50 00       	.word	0x0050;	????	
 9b6:	00 00       	.word	0x0000;	????	
 9b8:	02 00       	.word	0x0002;	????	
 9ba:	3c 00       	.word	0x003c;	????	
 9bc:	00 00       	.word	0x0000;	????	
 9be:	01 01       	.word	0x0101;	????	
 9c0:	fb 0e       	.word	0x0efb;	????	
 9c2:	0d 00       	.word	0x000d;	????	
 9c4:	01 01       	.word	0x0101;	????	
 9c6:	01 01       	.word	0x0101;	????	
 9c8:	00 00       	.word	0x0000;	????	
 9ca:	00 01       	.word	0x0100;	????	
 9cc:	00 00       	.word	0x0000;	????	
 9ce:	01 2e       	jc	$-1020   	;abs 0x5d2
 9d0:	2e 2f       	jc	$-418    	;abs 0x82e
 9d2:	2e 2e       	jc	$-930    	;abs 0x630
 9d4:	2f 2e       	jc	$-928    	;abs 0x634
 9d6:	2e 2f       	jc	$-418    	;abs 0x834
 9d8:	67 63       	addc.b	#2,	r7	;r3 As==10
 9da:	63 2f       	jc	$-312    	;abs 0x8a2
 9dc:	67 63       	addc.b	#2,	r7	;r3 As==10
 9de:	63 2f       	jc	$-312    	;abs 0x8a6
 9e0:	63 6f       	.word	0x6f63;	????	Illegal as 2-op instr
 9e2:	6e 66       	addc.b	@r6,	r14	
 9e4:	69 67       	addc.b	@r7,	r9	
 9e6:	2f 6d       	addc	@r13,	r15	
 9e8:	73 70       	.word	0x7073;	????	Illegal as 2-op instr
 9ea:	34 33       	jn	$-406    	;abs 0x854
 9ec:	30 00       	.word	0x0030;	????	
 9ee:	00 63       	adc	r0		
 9f0:	72 74       	subc.b	@r4+,	r2	
 9f2:	30 2e       	jc	$-926    	;abs 0x654
 9f4:	53 00       	.word	0x0053;	????	
 9f6:	01 00       	.word	0x0001;	????	
 9f8:	00 00       	.word	0x0000;	????	
 9fa:	00 03       	.word	0x0300;	????	
 9fc:	02 6a       	addc	r10,	r2	
 9fe:	c9 03       	.word	0x03c9;	????	
 a00:	cd 02       	.word	0x02cd;	????	
 a02:	01 02       	.word	0x0201;	????	
 a04:	02 00       	.word	0x0002;	????	
 a06:	01 01       	.word	0x0101;	????	

Disassembly of section .debug_frame:

00000000 <.debug_frame>:
   0:	0e 00       	.word	0x000e;	????	
   2:	00 00       	.word	0x0000;	????	
   4:	ff ff ff ff 	and.b	@r15+,	-1(r15)	;0xffff(r15)
   8:	01 00       	.word	0x0001;	????	
   a:	01 7e       	subc	r14,	r1	
   c:	00 0c       	.word	0x0c00;	????	
   e:	01 02       	.word	0x0201;	????	
  10:	80 01       	.word	0x0180;	????	
  12:	2c 00       	.word	0x002c;	????	
  14:	00 00       	.word	0x0000;	????	
  16:	00 00       	.word	0x0000;	????	
  18:	00 00       	.word	0x0000;	????	
  1a:	3e c0 e6 02 	bic	#742,	r14	;#0x02e6
  1e:	44 0e       	.word	0x0e44;	????	
  20:	3a 03       	.word	0x033a;	????	
  22:	ac 02       	.word	0x02ac;	????	
  24:	0e 3c       	jmp	$+30     	;abs 0x42
  26:	44 0e       	.word	0x0e44;	????	
  28:	3e 44       	mov	@r4+,	r14	
  2a:	0e 40       	mov	r0,	r14	
  2c:	40 2e       	jc	$-894    	;abs 0xfcae
  2e:	06 48       	mov	r8,	r6	
  30:	0e 3a       	jl	$-994    	;abs 0xfc4e
  32:	46 0e       	.word	0x0e46;	????	
  34:	3c 44       	mov	@r4+,	r12	
  36:	0e 3e       	jmp	$-994    	;abs 0xfc54
  38:	40 2e       	jc	$-894    	;abs 0xfcba
  3a:	04 46       	mov	r6,	r4	
  3c:	0e 3a       	jl	$-994    	;abs 0xfc5a
  3e:	4e 2e       	jc	$-866    	;abs 0xfcdc
  40:	00 00       	.word	0x0000;	????	
  42:	0e 00       	.word	0x000e;	????	
  44:	00 00       	.word	0x0000;	????	
  46:	ff ff ff ff 	and.b	@r15+,	-1(r15)	;0xffff(r15)
  4a:	01 00       	.word	0x0001;	????	
  4c:	01 7e       	subc	r14,	r1	
  4e:	00 0c       	.word	0x0c00;	????	
  50:	01 02       	.word	0x0201;	????	
  52:	80 01       	.word	0x0180;	????	
  54:	22 00       	.word	0x0022;	????	
  56:	00 00       	.word	0x0000;	????	
  58:	42 00       	.word	0x0042;	????	
  5a:	00 00       	.word	0x0000;	????	
  5c:	f0 c3 6a 00 	bic.b	#-1,	106(r0)	;r3 As==11, PC rel. 0x00c8
  60:	42 0e       	.word	0x0e42;	????	
  62:	04 8b       	sub	r11,	r4	
  64:	02 42       	mov	r2,	r2	
  66:	0e 06       	.word	0x060e;	????	
  68:	8a 03       	.word	0x038a;	????	
  6a:	42 0e       	.word	0x0e42;	????	
  6c:	08 89       	sub	r9,	r8	
  6e:	04 42       	mov	r2,	r4	
  70:	0e 0a       	.word	0x0a0e;	????	
  72:	88 05       	.word	0x0588;	????	
  74:	42 0e       	.word	0x0e42;	????	
  76:	0c 87       	sub	r7,	r12	
  78:	06 00       	.word	0x0006;	????	
  7a:	08 00       	.word	0x0008;	????	
  7c:	00 00       	.word	0x0000;	????	
  7e:	42 00       	.word	0x0042;	????	
  80:	00 00       	.word	0x0000;	????	
  82:	5a c4 0e 00 	bic.b	14(r4),	r10	;0x000e(r4)
  86:	0e 00       	.word	0x000e;	????	
  88:	00 00       	.word	0x0000;	????	
  8a:	42 00       	.word	0x0042;	????	
  8c:	00 00       	.word	0x0000;	????	
  8e:	68 c4       	bic.b	@r4,	r8	
  90:	14 00       	.word	0x0014;	????	
  92:	42 0e       	.word	0x0e42;	????	
  94:	04 8b       	sub	r11,	r4	
  96:	02 00       	.word	0x0002;	????	
  98:	1a 00       	.word	0x001a;	????	
  9a:	00 00       	.word	0x0000;	????	
  9c:	42 00       	.word	0x0042;	????	
  9e:	00 00       	.word	0x0000;	????	
  a0:	7c c4       	bic.b	@r4+,	r12	
  a2:	7a 00       	.word	0x007a;	????	
  a4:	42 0e       	.word	0x0e42;	????	
  a6:	04 8b       	sub	r11,	r4	
  a8:	02 42       	mov	r2,	r2	
  aa:	0e 06       	.word	0x060e;	????	
  ac:	8a 03       	.word	0x038a;	????	
  ae:	42 0e       	.word	0x0e42;	????	
  b0:	08 89       	sub	r9,	r8	
  b2:	04 44       	mov	r4,	r4	
  b4:	0e 28       	jnc	$+30     	;abs 0xd2
  b6:	12 00       	.word	0x0012;	????	
  b8:	00 00       	.word	0x0000;	????	
  ba:	42 00       	.word	0x0042;	????	
  bc:	00 00       	.word	0x0000;	????	
  be:	f6 c4 3a 00 	bic.b	@r4+,	58(r6)	;0x003a(r6)
  c2:	42 0e       	.word	0x0e42;	????	
  c4:	04 8b       	sub	r11,	r4	
  c6:	02 42       	mov	r2,	r2	
  c8:	0e 06       	.word	0x060e;	????	
  ca:	8a 03       	.word	0x038a;	????	
  cc:	1c 00       	.word	0x001c;	????	
  ce:	00 00       	.word	0x0000;	????	
  d0:	42 00       	.word	0x0042;	????	
  d2:	00 00       	.word	0x0000;	????	
  d4:	30 c5       	bic	@r5+,	r0	
  d6:	2a 01       	.word	0x012a;	????	
  d8:	42 0e       	.word	0x0e42;	????	
  da:	04 8b       	sub	r11,	r4	
  dc:	02 42       	mov	r2,	r2	
  de:	0e 06       	.word	0x060e;	????	
  e0:	8a 03       	.word	0x038a;	????	
  e2:	42 0e       	.word	0x0e42;	????	
  e4:	08 89       	sub	r9,	r8	
  e6:	04 42       	mov	r2,	r4	
  e8:	0e 0a       	.word	0x0a0e;	????	
  ea:	88 05       	.word	0x0588;	????	
  ec:	0e 00       	.word	0x000e;	????	
  ee:	00 00       	.word	0x0000;	????	
  f0:	ff ff ff ff 	and.b	@r15+,	-1(r15)	;0xffff(r15)
  f4:	01 00       	.word	0x0001;	????	
  f6:	01 7e       	subc	r14,	r1	
  f8:	00 0c       	.word	0x0c00;	????	
  fa:	01 02       	.word	0x0201;	????	
  fc:	80 01       	.word	0x0180;	????	
  fe:	08 00       	.word	0x0008;	????	
 100:	00 00       	.word	0x0000;	????	
 102:	ec 00       	.word	0x00ec;	????	
 104:	00 00       	.word	0x0000;	????	
 106:	5a c6 06 00 	bic.b	6(r6),	r10	;0x0006(r6)
 10a:	08 00       	.word	0x0008;	????	
 10c:	00 00       	.word	0x0000;	????	
 10e:	ec 00       	.word	0x00ec;	????	
 110:	00 00       	.word	0x0000;	????	
 112:	60 c6       	bic.b	@r6,	r0	
 114:	06 00       	.word	0x0006;	????	
 116:	0e 00       	.word	0x000e;	????	
 118:	00 00       	.word	0x0000;	????	
 11a:	ff ff ff ff 	and.b	@r15+,	-1(r15)	;0xffff(r15)
 11e:	01 00       	.word	0x0001;	????	
 120:	01 7e       	subc	r14,	r1	
 122:	00 0c       	.word	0x0c00;	????	
 124:	01 02       	.word	0x0201;	????	
 126:	80 01       	.word	0x0180;	????	
 128:	08 00       	.word	0x0008;	????	
 12a:	00 00       	.word	0x0000;	????	
 12c:	16 01       	.word	0x0116;	????	
 12e:	00 00       	.word	0x0000;	????	
 130:	66 c6       	bic.b	@r6,	r6	
 132:	2a 01       	.word	0x012a;	????	
 134:	08 00       	.word	0x0008;	????	
 136:	00 00       	.word	0x0000;	????	
 138:	16 01       	.word	0x0116;	????	
 13a:	00 00       	.word	0x0000;	????	
 13c:	90 c7 10 00 	bic	16(r7),	8(r0)	;0x0010(r7), PC rel. 0x0148
 140:	08 00 
 142:	00 00       	.word	0x0000;	????	
 144:	16 01       	.word	0x0116;	????	
 146:	00 00       	.word	0x0000;	????	
 148:	a0 c7 06 00 	bic	@r7,	6(r0)	;PC rel. 0x0150
 14c:	08 00       	.word	0x0008;	????	
 14e:	00 00       	.word	0x0000;	????	
 150:	16 01       	.word	0x0116;	????	
 152:	00 00       	.word	0x0000;	????	
 154:	a6 c7 0e 00 	bic	@r7,	14(r6)	;0x000e(r6)
 158:	08 00       	.word	0x0008;	????	
 15a:	00 00       	.word	0x0000;	????	
 15c:	16 01       	.word	0x0116;	????	
 15e:	00 00       	.word	0x0000;	????	
 160:	b4 c7 06 00 	bic	@r7+,	6(r4)	;0x0006(r4)
 164:	08 00       	.word	0x0008;	????	
 166:	00 00       	.word	0x0000;	????	
 168:	16 01       	.word	0x0116;	????	
 16a:	00 00       	.word	0x0000;	????	
 16c:	ba c7 0e 00 	bic	@r7+,	14(r10)	;0x000e(r10)
 170:	0e 00       	.word	0x000e;	????	
 172:	00 00       	.word	0x0000;	????	
 174:	ff ff ff ff 	and.b	@r15+,	-1(r15)	;0xffff(r15)
 178:	01 00       	.word	0x0001;	????	
 17a:	01 7e       	subc	r14,	r1	
 17c:	00 0c       	.word	0x0c00;	????	
 17e:	01 02       	.word	0x0201;	????	
 180:	80 01       	.word	0x0180;	????	
 182:	08 00       	.word	0x0008;	????	
 184:	00 00       	.word	0x0000;	????	
 186:	70 01       	.word	0x0170;	????	
 188:	00 00       	.word	0x0000;	????	
 18a:	24 c8       	bic	@r8,	r4	
 18c:	12 00       	.word	0x0012;	????	
 18e:	0e 00       	.word	0x000e;	????	
 190:	00 00       	.word	0x0000;	????	
 192:	ff ff ff ff 	and.b	@r15+,	-1(r15)	;0xffff(r15)
 196:	01 00       	.word	0x0001;	????	
 198:	01 7e       	subc	r14,	r1	
 19a:	00 0c       	.word	0x0c00;	????	
 19c:	01 02       	.word	0x0201;	????	
 19e:	80 01       	.word	0x0180;	????	
 1a0:	1c 00       	.word	0x001c;	????	
 1a2:	00 00       	.word	0x0000;	????	
 1a4:	8e 01       	.word	0x018e;	????	
 1a6:	00 00       	.word	0x0000;	????	
 1a8:	36 c8       	bic	@r8+,	r6	
 1aa:	6a 00       	.word	0x006a;	????	
 1ac:	42 0e       	.word	0x0e42;	????	
 1ae:	04 8b       	sub	r11,	r4	
 1b0:	02 42       	mov	r2,	r2	
 1b2:	0e 06       	.word	0x060e;	????	
 1b4:	8a 03       	.word	0x038a;	????	
 1b6:	42 0e       	.word	0x0e42;	????	
 1b8:	08 89       	sub	r9,	r8	
 1ba:	04 42       	mov	r2,	r4	
 1bc:	0e 0a       	.word	0x0a0e;	????	
 1be:	88 05       	.word	0x0588;	????	
 1c0:	0e 00       	.word	0x000e;	????	
 1c2:	00 00       	.word	0x0000;	????	
 1c4:	ff ff ff ff 	and.b	@r15+,	-1(r15)	;0xffff(r15)
 1c8:	01 00       	.word	0x0001;	????	
 1ca:	01 7e       	subc	r14,	r1	
 1cc:	00 0c       	.word	0x0c00;	????	
 1ce:	01 02       	.word	0x0201;	????	
 1d0:	80 01       	.word	0x0180;	????	
 1d2:	18 00       	.word	0x0018;	????	
 1d4:	00 00       	.word	0x0000;	????	
 1d6:	c0 01       	.word	0x01c0;	????	
 1d8:	00 00       	.word	0x0000;	????	
 1da:	a0 c8 40 00 	bic	@r8,	64(r0)	;PC rel. 0x021c
 1de:	42 0e       	.word	0x0e42;	????	
 1e0:	04 8b       	sub	r11,	r4	
 1e2:	02 42       	mov	r2,	r2	
 1e4:	0e 06       	.word	0x060e;	????	
 1e6:	8a 03       	.word	0x038a;	????	
 1e8:	42 0e       	.word	0x0e42;	????	
 1ea:	08 89       	sub	r9,	r8	
 1ec:	04 00       	.word	0x0004;	????	
 1ee:	0e 00       	.word	0x000e;	????	
 1f0:	00 00       	.word	0x0000;	????	
 1f2:	ff ff ff ff 	and.b	@r15+,	-1(r15)	;0xffff(r15)
 1f6:	01 00       	.word	0x0001;	????	
 1f8:	01 7e       	subc	r14,	r1	
 1fa:	00 0c       	.word	0x0c00;	????	
 1fc:	01 02       	.word	0x0201;	????	
 1fe:	80 01       	.word	0x0180;	????	
 200:	0e 00       	.word	0x000e;	????	
 202:	00 00       	.word	0x0000;	????	
 204:	ee 01       	.word	0x01ee;	????	
 206:	00 00       	.word	0x0000;	????	
 208:	e0 c8 8a 00 	bic.b	@r8,	138(r0)	;PC rel. 0x0294
 20c:	42 0e       	.word	0x0e42;	????	
 20e:	04 8b       	sub	r11,	r4	
 210:	02 00       	.word	0x0002;	????	

Disassembly of section .debug_str:

00000000 <.debug_str>:
   0:	74 6f       	addc.b	@r15+,	r4	
   2:	6b 65       	addc.b	@r5,	r11	
   4:	6e 00       	.word	0x006e;	????	
   6:	2f 68       	addc	@r8,	r15	
   8:	6f 6d       	addc.b	@r13,	r15	
   a:	65 2f       	jc	$-308    	;abs 0xfed6
   c:	6c 33       	jn	$-294    	;abs 0xfee6
   e:	2f 43       	mov	#2,	r15	;r3 As==10
  10:	53 32       	jn	$-856    	;abs 0xfcb8
  12:	32 33       	jn	$-410    	;abs 0xfe78
  14:	30 2f       	jc	$-414    	;abs 0xfe76
  16:	61 31       	jn	$+708    	;abs 0x2da
  18:	00 6d       	addc	r13,	r0	
  1a:	61 69       	addc.b	@r9,	r1	
  1c:	6e 00       	.word	0x006e;	????	
  1e:	6c 69       	addc.b	@r9,	r12	
  20:	6e 65       	addc.b	@r5,	r14	
  22:	00 6c       	addc	r12,	r0	
  24:	6f 6e       	addc.b	@r14,	r15	
  26:	67 20       	jnz	$+208    	;abs 0xf6
  28:	6c 6f       	addc.b	@r15,	r12	
  2a:	6e 67       	addc.b	@r7,	r14	
  2c:	20 69       	addc	@r9,	r0	
  2e:	6e 74       	subc.b	@r4,	r14	
  30:	00 5f       	add	r15,	r0	
  32:	5f 44 43 4f 	mov.b	20291(r4),r15	;0x4f43(r4)
  36:	43 54       	.word	0x5443;	????	Illegal as 2-op instr
  38:	4c 00       	.word	0x004c;	????	
  3a:	5f 5f 57 44 	add.b	17495(r15),r15	;0x4457(r15)
  3e:	54 43       	mov.b	#1,	r4	;r3 As==01
  40:	54 4c 00 47 	mov.b	18176(r12),r4	;0x4700(r12)
  44:	4e 55       	add.b	r5,	r14	
  46:	20 43       	br	#2		;r3 As==10
  48:	20 34       	jge	$+66     	;abs 0x8a
  4a:	2e 36       	jge	$-930    	;abs 0xfca8
  4c:	2e 33       	jn	$-418    	;abs 0xfeaa
  4e:	20 32       	jn	$-958    	;abs 0xfc90
  50:	30 31       	jn	$+610    	;abs 0x2b2
  52:	32 30       	jn	$+102    	;abs 0xb8
  54:	33 30       	jn	$+104    	;abs 0xbc
  56:	31 20       	jnz	$+100    	;abs 0xba
  58:	28 6d       	addc	@r13,	r8	
  5a:	73 70       	.word	0x7073;	????	Illegal as 2-op instr
  5c:	67 63       	addc.b	#2,	r7	;r3 As==10
  5e:	63 20       	jnz	$+200    	;abs 0x126
  60:	4c 54       	add.b	r4,	r12	
  62:	53 20       	jnz	$+168    	;abs 0x10a
  64:	32 30       	jn	$+102    	;abs 0xca
  66:	31 32       	jn	$-924    	;abs 0xfcca
  68:	30 34       	jge	$+98     	;abs 0xca
  6a:	30 36       	jge	$-926    	;abs 0xfccc
  6c:	20 75       	subc	@r5,	r0	
  6e:	6e 70       	subc.b	@r0,	r14	
  70:	61 74       	subc.b	@r4,	r1	
  72:	63 68       	.word	0x6863;	????	Illegal as 2-op instr
  74:	65 64       	addc.b	@r4,	r5	
  76:	29 00       	.word	0x0029;	????	
  78:	5f 5f 43 41 	add.b	16707(r15),r15	;0x4143(r15)
  7c:	4c 44       	mov.b	r4,	r12	
  7e:	43 4f       	.word	0x4f43;	????	Illegal as 2-op instr
  80:	5f 31       	jn	$+704    	;abs 0x340
  82:	4d 48       	mov.b	r8,	r13	
  84:	5a 00       	.word	0x005a;	????	
  86:	75 6e       	addc.b	@r14+,	r5	
  88:	73 69       	.word	0x6973;	????	Illegal as 2-op instr
  8a:	67 6e       	addc.b	@r14,	r7	
  8c:	65 64       	addc.b	@r4,	r5	
  8e:	20 63       	addc	#2,	r0	;r3 As==10
  90:	68 61       	addc.b	@r1,	r8	
  92:	72 00       	.word	0x0072;	????	
  94:	63 75       	.word	0x7563;	????	Illegal as 2-op instr
  96:	72 73       	subc.b	#-1,	r2	;r3 As==11
  98:	6f 72       	subc.b	#4,	r15	;r2 As==10
  9a:	00 72       	subc	r2,	r0	
  9c:	70 6e       	addc.b	@r14+,	r0	
  9e:	2e 63       	addc	#2,	r14	;r3 As==10
  a0:	00 6c       	addc	r12,	r0	
  a2:	6f 6e       	addc.b	@r14,	r15	
  a4:	67 20       	jnz	$+208    	;abs 0x174
  a6:	6c 6f       	addc.b	@r15,	r12	
  a8:	6e 67       	addc.b	@r7,	r14	
  aa:	20 75       	subc	@r5,	r0	
  ac:	6e 73       	subc.b	#2,	r14	;r3 As==10
  ae:	69 67       	addc.b	@r7,	r9	
  b0:	6e 65       	addc.b	@r5,	r14	
  b2:	64 20       	jnz	$+202    	;abs 0x17c
  b4:	69 6e       	addc.b	@r14,	r9	
  b6:	74 00       	.word	0x0074;	????	
  b8:	73 74       	.word	0x7473;	????	Illegal as 2-op instr
  ba:	61 63       	addc.b	#2,	r1	;r3 As==10
  bc:	6b 00       	.word	0x006b;	????	
  be:	73 68       	.word	0x6873;	????	Illegal as 2-op instr
  c0:	6f 72       	subc.b	#4,	r15	;r2 As==10
  c2:	74 20       	jnz	$+234    	;abs 0x1ac
  c4:	75 6e       	addc.b	@r14+,	r5	
  c6:	73 69       	.word	0x6973;	????	Illegal as 2-op instr
  c8:	67 6e       	addc.b	@r14,	r7	
  ca:	65 64       	addc.b	@r4,	r5	
  cc:	20 69       	addc	@r9,	r0	
  ce:	6e 74       	subc.b	@r4,	r14	
  d0:	00 5f       	add	r15,	r0	
  d2:	5f 42 43 53 	mov.b	&0x5343,r15	
  d6:	43 54       	.word	0x5443;	????	Illegal as 2-op instr
  d8:	4c 31       	jn	$+666    	;abs 0x372
  da:	00 5f       	add	r15,	r0	
  dc:	5f 43       	mov.b	#1,	r15	;r3 As==01
  de:	41 4c       	mov.b	r12,	r1	
  e0:	42 43       	clr.b	r2		
  e2:	31 5f       	add	@r15+,	r1	
  e4:	31 4d       	mov	@r13+,	r1	
  e6:	48 5a       	add.b	r10,	r8	
  e8:	00 63       	adc	r0		
  ea:	69 6f       	addc.b	@r15,	r9	
  ec:	5f 70 72 69 	subc.b	26994(r0),r15	;PC rel. 0x6a60
  f0:	6e 74       	subc.b	@r4,	r14	
  f2:	62 00       	.word	0x0062;	????	
  f4:	63 69       	.word	0x6963;	????	Illegal as 2-op instr
  f6:	6f 5f       	add.b	@r15,	r15	
  f8:	70 72       	subc.b	#8,	r0	;r2 As==11
  fa:	69 6e       	addc.b	@r14,	r9	
  fc:	74 66       	addc.b	@r6+,	r4	
  fe:	00 5f       	add	r15,	r0	
 100:	5f 62 75 69 	addc.b	&0x6975,r15	
 104:	6c 74       	subc.b	@r4,	r12	
 106:	69 6e       	addc.b	@r14,	r9	
 108:	5f 76 61 5f 	subc.b	24417(r6),r15	;0x5f61(r6)
 10c:	6c 69       	addc.b	@r9,	r12	
 10e:	73 74       	.word	0x7473;	????	Illegal as 2-op instr
 110:	00 2f       	jc	$-510    	;abs 0xff12
 112:	68 6f       	addc.b	@r15,	r8	
 114:	6d 65       	addc.b	@r5,	r13	
 116:	2f 6c       	addc	@r12,	r15	
 118:	33 2f       	jc	$-408    	;abs 0xff80
 11a:	44 6f       	addc.b	r15,	r4	
 11c:	77 6e       	addc.b	@r14+,	r7	
 11e:	6c 6f       	addc.b	@r15,	r12	
 120:	61 64       	addc.b	@r4,	r1	
 122:	73 2f       	jc	$-280    	;abs 0xa
 124:	6c 69       	addc.b	@r9,	r12	
 126:	62 65       	addc.b	@r5,	r2	
 128:	6d 62       	addc.b	#4,	r13	;r2 As==10
 12a:	2d 6d       	addc	@r13,	r13	
 12c:	61 73       	subc.b	#2,	r1	;r3 As==10
 12e:	74 65       	addc.b	@r5+,	r4	
 130:	72 2f       	jc	$-282    	;abs 0x16
 132:	6c 69       	addc.b	@r9,	r12	
 134:	62 63       	addc.b	#2,	r2	;r3 As==10
 136:	6f 6e       	addc.b	@r14,	r15	
 138:	69 6f       	addc.b	@r15,	r9	
 13a:	2f 73       	subc	#2,	r15	;r3 As==10
 13c:	72 63       	addc.b	#-1,	r2	;r3 As==11
 13e:	00 63       	adc	r0		
 140:	69 6f       	addc.b	@r15,	r9	
 142:	5f 70 72 69 	subc.b	26994(r0),r15	;PC rel. 0x6ab6
 146:	6e 74       	subc.b	@r4,	r14	
 148:	69 00       	.word	0x0069;	????	
 14a:	5f 78 74 6f 	subc.b	28532(r8),r15	;0x6f74(r8)
 14e:	61 00       	.word	0x0061;	????	
 150:	62 61       	addc.b	@r1,	r2	
 152:	64 5f       	add.b	@r15,	r4	
 154:	66 6d       	addc.b	@r13,	r6	
 156:	74 00       	.word	0x0074;	????	
 158:	73 69       	.word	0x6973;	????	Illegal as 2-op instr
 15a:	7a 65       	addc.b	@r5+,	r10	
 15c:	00 5f       	add	r15,	r0	
 15e:	70 75       	subc.b	@r5+,	r0	
 160:	74 68       	addc.b	@r8+,	r4	
 162:	00 63       	adc	r0		
 164:	6f 6e       	addc.b	@r14,	r15	
 166:	69 6f       	addc.b	@r15,	r9	
 168:	2e 63       	addc	#2,	r14	;r3 As==10
 16a:	00 66       	addc	r6,	r0	
 16c:	6f 72       	subc.b	#4,	r15	;r2 As==10
 16e:	6d 61       	addc.b	@r1,	r13	
 170:	74 00       	.word	0x0074;	????	
 172:	63 69       	.word	0x6963;	????	Illegal as 2-op instr
 174:	6f 5f       	add.b	@r15,	r15	
 176:	70 72       	subc.b	#8,	r0	;r2 As==11
 178:	69 6e       	addc.b	@r14,	r9	
 17a:	74 00       	.word	0x0074;	????	
 17c:	5f 5f 67 6e 	add.b	28263(r15),r15	;0x6e67(r15)
 180:	75 63       	addc.b	#-1,	r5	;r3 As==11
 182:	5f 76 61 5f 	subc.b	24417(r6),r15	;0x5f61(r6)
 186:	6c 69       	addc.b	@r9,	r12	
 188:	73 74       	.word	0x7473;	????	Illegal as 2-op instr
 18a:	00 62       	addc	r2,	r0	
 18c:	75 66       	addc.b	@r6+,	r5	
 18e:	66 65       	addc.b	@r5,	r6	
 190:	72 00       	.word	0x0072;	????	
 192:	63 69       	.word	0x6963;	????	Illegal as 2-op instr
 194:	6f 5f       	add.b	@r15,	r15	
 196:	67 65       	addc.b	@r5,	r7	
 198:	74 63       	addc.b	#-1,	r4	;r3 As==11
 19a:	00 63       	adc	r0		
 19c:	69 6f       	addc.b	@r15,	r9	
 19e:	5f 70 72 69 	subc.b	26994(r0),r15	;PC rel. 0x6b12
 1a2:	6e 74       	subc.b	@r4,	r14	
 1a4:	63 00       	.word	0x0063;	????	
 1a6:	63 6f       	.word	0x6f63;	????	Illegal as 2-op instr
 1a8:	6e 69       	addc.b	@r9,	r14	
 1aa:	6f 5f       	add.b	@r15,	r15	
 1ac:	73 65       	.word	0x6573;	????	Illegal as 2-op instr
 1ae:	72 69       	addc.b	@r9+,	r2	
 1b0:	61 6c       	addc.b	@r12,	r1	
 1b2:	2e 63       	addc	#2,	r14	;r3 As==10
 1b4:	00 63       	adc	r0		
 1b6:	6c 6b       	addc.b	@r11,	r12	
 1b8:	73 70       	.word	0x7073;	????	Illegal as 2-op instr
 1ba:	65 65       	addc.b	@r5,	r5	
 1bc:	64 00       	.word	0x0064;	????	
 1be:	73 65       	.word	0x6573;	????	Illegal as 2-op instr
 1c0:	72 69       	addc.b	@r9+,	r2	
 1c2:	61 6c       	addc.b	@r12,	r1	
 1c4:	5f 72 65 63 	subc.b	&0x6365,r15	
 1c8:	76 5f       	add.b	@r15+,	r6	
 1ca:	62 6c       	addc.b	@r12,	r2	
 1cc:	6f 63       	addc.b	#2,	r15	;r3 As==10
 1ce:	6b 69       	addc.b	@r9,	r11	
 1d0:	6e 67       	addc.b	@r7,	r14	
 1d2:	00 73       	sbc	r0		
 1d4:	65 72       	subc.b	#4,	r5	;r2 As==10
 1d6:	69 61       	addc.b	@r1,	r9	
 1d8:	6c 5f       	add.b	@r15,	r12	
 1da:	75 73       	subc.b	#-1,	r5	;r3 As==11
 1dc:	63 69       	.word	0x6963;	????	Illegal as 2-op instr
 1de:	5f 6d 73 70 	addc.b	28787(r13),r15	;0x7073(r13)
 1e2:	34 33       	jn	$-406    	;abs 0x4c
 1e4:	30 2e       	jc	$-926    	;abs 0xfe46
 1e6:	63 00       	.word	0x0063;	????	
 1e8:	5f 5f 55 43 	add.b	17237(r15),r15	;0x4355(r15)
 1ec:	41 30       	jn	$+132    	;abs 0x270
 1ee:	52 58 42 55 	add.b	21826(r8),r2	;0x5542(r8)
 1f2:	46 00       	.word	0x0046;	????	
 1f4:	5f 5f 55 43 	add.b	17237(r15),r15	;0x4355(r15)
 1f8:	41 30       	jn	$+132    	;abs 0x27c
 1fa:	43 54       	.word	0x5443;	????	Illegal as 2-op instr
 1fc:	4c 31       	jn	$+666    	;abs 0x496
 1fe:	00 73       	sbc	r0		
 200:	65 72       	subc.b	#4,	r5	;r2 As==10
 202:	69 61       	addc.b	@r1,	r9	
 204:	6c 5f       	add.b	@r15,	r12	
 206:	72 65       	addc.b	@r5+,	r2	
 208:	63 76       	.word	0x7663;	????	Illegal as 2-op instr
 20a:	00 73       	sbc	r0		
 20c:	65 72       	subc.b	#4,	r5	;r2 As==10
 20e:	69 61       	addc.b	@r1,	r9	
 210:	6c 5f       	add.b	@r15,	r12	
 212:	73 65       	.word	0x6573;	????	Illegal as 2-op instr
 214:	6e 64       	addc.b	@r4,	r14	
 216:	00 5f       	add	r15,	r0	
 218:	5f 50 31 53 	add.b	21297(r0),r15	;PC rel. 0x554b
 21c:	45 4c       	mov.b	r12,	r5	
 21e:	32 00       	.word	0x0032;	????	
 220:	5f 5f 50 31 	add.b	12624(r15),r15	;0x3150(r15)
 224:	53 45       	.word	0x4553;	????	Illegal as 2-op instr
 226:	4c 00       	.word	0x004c;	????	
 228:	64 61       	addc.b	@r1,	r4	
 22a:	74 61       	addc.b	@r1+,	r4	
 22c:	00 62       	addc	r2,	r0	
 22e:	61 75       	subc.b	@r5,	r1	
 230:	64 72       	subc.b	#4,	r4	;r2 As==10
 232:	61 74       	subc.b	@r4,	r1	
 234:	65 00       	.word	0x0065;	????	
 236:	73 65       	.word	0x6573;	????	Illegal as 2-op instr
 238:	72 69       	addc.b	@r9+,	r2	
 23a:	61 6c       	addc.b	@r12,	r1	
 23c:	5f 63       	addc.b	#1,	r15	;r3 As==01
 23e:	6c 6b       	addc.b	@r11,	r12	
 240:	5f 69 6e 69 	addc.b	26990(r9),r15	;0x696e(r9)
 244:	74 00       	.word	0x0074;	????	
 246:	5f 5f 55 43 	add.b	17237(r15),r15	;0x4355(r15)
 24a:	41 30       	jn	$+132    	;abs 0x2ce
 24c:	54 58 42 55 	add.b	21826(r8),r4	;0x5542(r8)
 250:	46 00       	.word	0x0046;	????	
 252:	73 65       	.word	0x6573;	????	Illegal as 2-op instr
 254:	72 69       	addc.b	@r9+,	r2	
 256:	61 6c       	addc.b	@r12,	r1	
 258:	5f 69 6e 69 	addc.b	26990(r9),r15	;0x696e(r9)
 25c:	74 00       	.word	0x0074;	????	
 25e:	5f 5f 55 43 	add.b	17237(r15),r15	;0x4355(r15)
 262:	41 30       	jn	$+132    	;abs 0x2e6
 264:	4d 43       	clr.b	r13		
 266:	54 4c 00 73 	mov.b	29440(r12),r4	;0x7300(r12)
 26a:	65 72       	subc.b	#4,	r5	;r2 As==10
 26c:	69 61       	addc.b	@r1,	r9	
 26e:	6c 5f       	add.b	@r15,	r12	
 270:	73 65       	.word	0x6573;	????	Illegal as 2-op instr
 272:	6e 64       	addc.b	@r4,	r14	
 274:	5f 62 6c 6f 	addc.b	&0x6f6c,r15	
 278:	63 6b       	.word	0x6b63;	????	Illegal as 2-op instr
 27a:	69 6e       	addc.b	@r14,	r9	
 27c:	67 00       	.word	0x0067;	????	
 27e:	5f 5f 49 46 	add.b	17993(r15),r15	;0x4649(r15)
 282:	47 32       	jn	$-880    	;abs 0xff12
 284:	00 5f       	add	r15,	r0	
 286:	5f 55 43 41 	add.b	16707(r5),r15	;0x4143(r5)
 28a:	30 42       	br	#8		;r2 As==11
 28c:	52 30       	jn	$+166    	;abs 0x332
 28e:	00 5f       	add	r15,	r0	
 290:	5f 55 43 41 	add.b	16707(r5),r15	;0x4143(r5)
 294:	30 42       	br	#8		;r2 As==11
 296:	52 31       	jn	$+678    	;abs 0x53c
 298:	00 2f       	jc	$-510    	;abs 0x9a
 29a:	68 6f       	addc.b	@r15,	r8	
 29c:	6d 65       	addc.b	@r5,	r13	
 29e:	2f 6c       	addc	@r12,	r15	
 2a0:	33 2f       	jc	$-408    	;abs 0x108
 2a2:	44 6f       	addc.b	r15,	r4	
 2a4:	77 6e       	addc.b	@r14+,	r7	
 2a6:	6c 6f       	addc.b	@r15,	r12	
 2a8:	61 64       	addc.b	@r4,	r1	
 2aa:	73 2f       	jc	$-280    	;abs 0x192
 2ac:	6c 69       	addc.b	@r9,	r12	
 2ae:	62 65       	addc.b	@r5,	r2	
 2b0:	6d 62       	addc.b	#4,	r13	;r2 As==10
 2b2:	2d 6d       	addc	@r13,	r13	
 2b4:	61 73       	subc.b	#2,	r1	;r3 As==10
 2b6:	74 65       	addc.b	@r5+,	r4	
 2b8:	72 2f       	jc	$-282    	;abs 0x19e
 2ba:	6c 69       	addc.b	@r9,	r12	
 2bc:	62 73       	subc.b	#2,	r2	;r3 As==10
 2be:	65 72       	subc.b	#4,	r5	;r2 As==10
 2c0:	69 61       	addc.b	@r1,	r9	
 2c2:	6c 2f       	jc	$-294    	;abs 0x19c
 2c4:	73 72       	.word	0x7273;	????	Illegal as 2-op instr
 2c6:	63 00       	.word	0x0063;	????	
 2c8:	73 74       	.word	0x7473;	????	Illegal as 2-op instr
 2ca:	72 63       	addc.b	#-1,	r2	;r3 As==11
 2cc:	68 72       	subc.b	#4,	r8	;r2 As==10
 2ce:	00 2e       	jc	$-1022   	;abs 0xfed0
 2d0:	2f 73       	subc	#2,	r15	;r3 As==10
 2d2:	74 72       	subc.b	#8,	r4	;r2 As==11
 2d4:	69 6e       	addc.b	@r14,	r9	
 2d6:	67 2f       	jc	$-304    	;abs 0x1a6
 2d8:	73 74       	.word	0x7473;	????	Illegal as 2-op instr
 2da:	72 63       	addc.b	#-1,	r2	;r3 As==11
 2dc:	68 72       	subc.b	#4,	r8	;r2 As==10
 2de:	2e 63       	addc	#2,	r14	;r3 As==10
 2e0:	00 2f       	jc	$-510    	;abs 0xe2
 2e2:	68 6f       	addc.b	@r15,	r8	
 2e4:	6d 65       	addc.b	@r5,	r13	
 2e6:	2f 72       	subc	#4,	r15	;r2 As==10
 2e8:	6f 62       	addc.b	#4,	r15	;r2 As==10
 2ea:	65 72       	subc.b	#4,	r5	;r2 As==10
 2ec:	74 69       	addc.b	@r9+,	r4	
 2ee:	6e 61       	addc.b	@r1,	r14	
 2f0:	6e 74       	subc.b	@r4,	r14	
 2f2:	2f 6d       	addc	@r13,	r15	
 2f4:	73 70       	.word	0x7073;	????	Illegal as 2-op instr
 2f6:	67 63       	addc.b	#2,	r7	;r3 As==10
 2f8:	63 2f       	jc	$-312    	;abs 0x1c0
 2fa:	6d 73       	subc.b	#2,	r13	;r3 As==10
 2fc:	70 34       	jge	$+226    	;abs 0x3de
 2fe:	33 30       	jn	$+104    	;abs 0x366
 300:	2d 6c       	addc	@r12,	r13	
 302:	69 62       	addc.b	#4,	r9	;r2 As==10
 304:	63 2d       	jc	$+712    	;abs 0x5cc
 306:	32 30       	jn	$+102    	;abs 0x36c
 308:	31 32       	jn	$-924    	;abs 0xff6c
 30a:	30 32       	jn	$-926    	;abs 0xff6c
 30c:	32 34       	jge	$+102    	;abs 0x372
 30e:	2f 73       	subc	#2,	r15	;r3 As==10
 310:	72 63       	addc.b	#-1,	r2	;r3 As==11
 312:	00 73       	sbc	r0		
 314:	69 7a       	subc.b	@r10,	r9	
 316:	65 5f       	add.b	@r15,	r5	
 318:	74 00       	.word	0x0074;	????	
 31a:	64 73       	subc.b	#2,	r4	;r3 As==10
 31c:	74 30       	jn	$+234    	;abs 0x406
 31e:	00 75       	subc	r5,	r0	
 320:	5f 63       	addc.b	#1,	r15	;r3 As==01
 322:	68 61       	addc.b	@r1,	r8	
 324:	72 00       	.word	0x0072;	????	
 326:	6d 65       	addc.b	@r5,	r13	
 328:	6d 73       	subc.b	#2,	r13	;r3 As==10
 32a:	65 74       	subc.b	@r4,	r5	
 32c:	00 2e       	jc	$-1022   	;abs 0xff2e
 32e:	2f 73       	subc	#2,	r15	;r3 As==10
 330:	74 72       	subc.b	#8,	r4	;r2 As==11
 332:	69 6e       	addc.b	@r14,	r9	
 334:	67 2f       	jc	$-304    	;abs 0x204
 336:	6d 65       	addc.b	@r5,	r13	
 338:	6d 73       	subc.b	#2,	r13	;r3 As==10
 33a:	65 74       	subc.b	@r4,	r5	
 33c:	2e 63       	addc	#2,	r14	;r3 As==10
 33e:	00 75       	subc	r5,	r0	
 340:	5f 69 6e 74 	addc.b	29806(r9),r15	;0x746e(r9)
 344:	00 6c       	addc	r12,	r0	
 346:	65 6e       	addc.b	@r14,	r5	
 348:	67 74       	subc.b	@r4,	r7	
 34a:	68 00       	.word	0x0068;	????	
 34c:	73 74       	.word	0x7473;	????	Illegal as 2-op instr
 34e:	72 73       	subc.b	#-1,	r2	;r3 As==11
 350:	65 70       	subc.b	@r0,	r5	
 352:	00 73       	sbc	r0		
 354:	70 61       	addc.b	@r1+,	r0	
 356:	6e 70       	subc.b	@r0,	r14	
 358:	00 2e       	jc	$-1022   	;abs 0xff5a
 35a:	2f 73       	subc	#2,	r15	;r3 As==10
 35c:	74 72       	subc.b	#8,	r4	;r2 As==11
 35e:	69 6e       	addc.b	@r14,	r9	
 360:	67 2f       	jc	$-304    	;abs 0x230
 362:	73 74       	.word	0x7473;	????	Illegal as 2-op instr
 364:	72 73       	subc.b	#-1,	r2	;r3 As==11
 366:	65 70       	subc.b	@r0,	r5	
 368:	2e 63       	addc	#2,	r14	;r3 As==10
 36a:	00 73       	sbc	r0		
 36c:	74 72       	subc.b	#8,	r4	;r2 As==11
 36e:	69 6e       	addc.b	@r14,	r9	
 370:	67 70       	subc.b	@r0,	r7	
 372:	00 64       	addc	r4,	r0	
 374:	65 6c       	addc.b	@r12,	r5	
 376:	69 6d       	addc.b	@r13,	r9	
 378:	00 73       	sbc	r0		
 37a:	69 67       	addc.b	@r7,	r9	
 37c:	6e 00       	.word	0x006e;	????	
 37e:	61 74       	subc.b	@r4,	r1	
 380:	6f 69       	addc.b	@r9,	r15	
 382:	00 2e       	jc	$-1022   	;abs 0xff84
 384:	2f 73       	subc	#2,	r15	;r3 As==10
 386:	74 64       	addc.b	@r4+,	r4	
 388:	6c 69       	addc.b	@r9,	r12	
 38a:	62 2f       	jc	$-314    	;abs 0x250
 38c:	61 74       	subc.b	@r4,	r1	
 38e:	6f 69       	addc.b	@r9,	r15	
 390:	2e 63       	addc	#2,	r14	;r3 As==10
	...

Disassembly of section .debug_loc:

00000000 <.debug_loc>:
   0:	3e c0 42 c0 	bic	#-16318,r14	;#0xc042
   4:	02 00       	.word	0x0002;	????	
   6:	71 00       	.word	0x0071;	????	
   8:	42 c0       	bic.b	r0,	r2	
   a:	ee c2 02 00 	bic.b	#4,	2(r14)	;r2 As==10, 0x0002(r14)
   e:	71 38       	jl	$+228    	;abs 0xf2
  10:	ee c2 f2 c2 	bic.b	#4,	-15630(r14);r2 As==10, 0xc2f2(r14)
  14:	02 00       	.word	0x0002;	????	
  16:	71 3a       	jl	$-796    	;abs 0xfcfa
  18:	f2 c2 f6 c2 	bic.b	#8,	&0xc2f6	;r2 As==11
  1c:	02 00       	.word	0x0002;	????	
  1e:	71 3c       	jmp	$+228    	;abs 0x102
  20:	f6 c2 fe c2 	bic.b	#8,	-15618(r6);r2 As==11, 0xc2fe(r6)
  24:	02 00       	.word	0x0002;	????	
  26:	71 3e       	jmp	$-796    	;abs 0xfd0a
  28:	fe c2 04 c3 	bic.b	#8,	-15612(r14);r2 As==11, 0xc304(r14)
  2c:	02 00       	.word	0x0002;	????	
  2e:	71 38       	jl	$+228    	;abs 0x112
  30:	04 c3       	bic	#0,	r4	;r3 As==00
  32:	08 c3       	bic	#0,	r8	;r3 As==00
  34:	02 00       	.word	0x0002;	????	
  36:	71 3a       	jl	$-796    	;abs 0xfd1a
  38:	08 c3       	bic	#0,	r8	;r3 As==00
  3a:	0e c3       	bic	#0,	r14	;r3 As==00
  3c:	02 00       	.word	0x0002;	????	
  3e:	71 3c       	jmp	$+228    	;abs 0x122
  40:	0e c3       	bic	#0,	r14	;r3 As==00
  42:	24 c3       	bic	#2,	r4	;r3 As==10
  44:	02 00       	.word	0x0002;	????	
  46:	71 38       	jl	$+228    	;abs 0x12a
  48:	00 00       	.word	0x0000;	????	
  4a:	00 00       	.word	0x0000;	????	
  4c:	00 00       	.word	0x0000;	????	
  4e:	02 00       	.word	0x0002;	????	
  50:	02 00       	.word	0x0002;	????	
  52:	71 02       	.word	0x0271;	????	
  54:	02 00       	.word	0x0002;	????	
  56:	04 00       	.word	0x0004;	????	
  58:	02 00       	.word	0x0002;	????	
  5a:	71 04       	.word	0x0471;	????	
  5c:	04 00       	.word	0x0004;	????	
  5e:	06 00       	.word	0x0006;	????	
  60:	02 00       	.word	0x0002;	????	
  62:	71 06       	.word	0x0671;	????	
  64:	06 00       	.word	0x0006;	????	
  66:	08 00       	.word	0x0008;	????	
  68:	02 00       	.word	0x0002;	????	
  6a:	71 08       	.word	0x0871;	????	
  6c:	08 00       	.word	0x0008;	????	
  6e:	0a 00       	.word	0x000a;	????	
  70:	02 00       	.word	0x0002;	????	
  72:	71 0a       	.word	0x0a71;	????	
  74:	0a 00       	.word	0x000a;	????	
  76:	6a 00       	.word	0x006a;	????	
  78:	02 00       	.word	0x0002;	????	
  7a:	71 0c       	.word	0x0c71;	????	
  7c:	00 00       	.word	0x0000;	????	
  7e:	00 00       	.word	0x0000;	????	
  80:	00 00       	.word	0x0000;	????	
  82:	14 00       	.word	0x0014;	????	
  84:	06 00       	.word	0x0006;	????	
  86:	5e 93       	cmp.b	#1,	r14	;r3 As==01
  88:	02 5f       	add	r15,	r2	
  8a:	93 02       	.word	0x0293;	????	
  8c:	14 00       	.word	0x0014;	????	
  8e:	66 00       	.word	0x0066;	????	
  90:	06 00       	.word	0x0006;	????	
  92:	5a 93       	cmp.b	#1,	r10	;r3 As==01
  94:	02 5b       	add	r11,	r2	
  96:	93 02       	.word	0x0293;	????	
  98:	00 00       	.word	0x0000;	????	
  9a:	00 00       	.word	0x0000;	????	
  9c:	00 00       	.word	0x0000;	????	
  9e:	14 00       	.word	0x0014;	????	
  a0:	01 00       	.word	0x0001;	????	
  a2:	5d 14       	.word	0x145d;	????	
  a4:	00 60       	rlc	r0		
  a6:	00 01       	.word	0x0100;	????	
  a8:	00 57       	add	r7,	r0	
  aa:	00 00       	.word	0x0000;	????	
  ac:	00 00       	.word	0x0000;	????	
  ae:	2c 00       	.word	0x002c;	????	
  b0:	32 00       	.word	0x0032;	????	
  b2:	03 00       	.word	0x0003;	????	
  b4:	08 30       	jn	$+18     	;abs 0xc6
  b6:	9f 32       	jn	$-704    	;abs 0xfdf6
  b8:	00 47       	br	r7		
  ba:	00 01       	.word	0x0100;	????	
  bc:	00 5f       	add	r15,	r0	
  be:	00 00       	.word	0x0000;	????	
  c0:	00 00       	.word	0x0000;	????	
  c2:	2c 00       	.word	0x002c;	????	
  c4:	47 00       	.word	0x0047;	????	
  c6:	02 00       	.word	0x0002;	????	
  c8:	77 7c       	subc.b	@r12+,	r7	
  ca:	47 00       	.word	0x0047;	????	
  cc:	4c 00       	.word	0x004c;	????	
  ce:	06 00       	.word	0x0006;	????	
  d0:	58 93       	cmp.b	#1,	r8	;r3 As==01
  d2:	02 59       	add	r9,	r2	
  d4:	93 02       	.word	0x0293;	????	
  d6:	00 00       	.word	0x0000;	????	
  d8:	00 00       	.word	0x0000;	????	
  da:	6a 00       	.word	0x006a;	????	
  dc:	6e 00       	.word	0x006e;	????	
  de:	01 00       	.word	0x0001;	????	
  e0:	5f 00       	.word	0x005f;	????	
  e2:	00 00       	.word	0x0000;	????	
  e4:	00 78       	subc	r8,	r0	
  e6:	00 7a       	subc	r10,	r0	
  e8:	00 02       	.word	0x0200;	????	
  ea:	00 71       	subc	r1,	r0	
  ec:	02 7a       	subc	r10,	r2	
  ee:	00 8c       	sub	r12,	r0	
  f0:	00 02       	.word	0x0200;	????	
  f2:	00 71       	subc	r1,	r0	
  f4:	04 00       	.word	0x0004;	????	
  f6:	00 00       	.word	0x0000;	????	
  f8:	00 78       	subc	r8,	r0	
  fa:	00 7e       	subc	r14,	r0	
  fc:	00 01       	.word	0x0100;	????	
  fe:	00 5f       	add	r15,	r0	
 100:	00 00       	.word	0x0000;	????	
 102:	00 00       	.word	0x0000;	????	
 104:	7c 00       	.word	0x007c;	????	
 106:	7e 00       	.word	0x007e;	????	
 108:	02 00       	.word	0x0002;	????	
 10a:	30 9f       	cmp	@r15+,	r0	
 10c:	00 00       	.word	0x0000;	????	
 10e:	00 00       	.word	0x0000;	????	
 110:	8c 00       	.word	0x008c;	????	
 112:	8e 00       	.word	0x008e;	????	
 114:	02 00       	.word	0x0002;	????	
 116:	71 02       	.word	0x0271;	????	
 118:	8e 00       	.word	0x008e;	????	
 11a:	90 00       	.word	0x0090;	????	
 11c:	02 00       	.word	0x0002;	????	
 11e:	71 04       	.word	0x0471;	????	
 120:	90 00       	.word	0x0090;	????	
 122:	92 00       	.word	0x0092;	????	
 124:	02 00       	.word	0x0002;	????	
 126:	71 06       	.word	0x0671;	????	
 128:	92 00       	.word	0x0092;	????	
 12a:	96 00       	.word	0x0096;	????	
 12c:	02 00       	.word	0x0002;	????	
 12e:	71 08       	.word	0x0871;	????	
 130:	96 00       	.word	0x0096;	????	
 132:	06 01       	.word	0x0106;	????	
 134:	02 00       	.word	0x0002;	????	
 136:	71 28       	jnc	$+228    	;abs 0x21a
 138:	00 00       	.word	0x0000;	????	
 13a:	00 00       	.word	0x0000;	????	
 13c:	8c 00       	.word	0x008c;	????	
 13e:	9c 00       	.word	0x009c;	????	
 140:	01 00       	.word	0x0001;	????	
 142:	5f 9c 00 d0 	cmp.b	-12288(r12),r15	;0xd000(r12)
 146:	00 01       	.word	0x0100;	????	
 148:	00 5b       	add	r11,	r0	
 14a:	d0 00       	.word	0x00d0;	????	
 14c:	d8 00       	.word	0x00d8;	????	
 14e:	01 00       	.word	0x0001;	????	
 150:	5f d8 00 e0 	bis.b	-8192(r8),r15	;0xe000(r8)
 154:	00 01       	.word	0x0100;	????	
 156:	00 5b       	add	r11,	r0	
 158:	e0 00       	.word	0x00e0;	????	
 15a:	e2 00       	.word	0x00e2;	????	
 15c:	01 00       	.word	0x0001;	????	
 15e:	5f 00       	.word	0x005f;	????	
 160:	00 00       	.word	0x0000;	????	
 162:	00 d2       	bis	r2,	r0	
 164:	00 d8       	bis	r8,	r0	
 166:	00 01       	.word	0x0100;	????	
 168:	00 5a       	add	r10,	r0	
 16a:	00 00       	.word	0x0000;	????	
 16c:	00 00       	.word	0x0000;	????	
 16e:	dc 00       	.word	0x00dc;	????	
 170:	e2 00       	.word	0x00e2;	????	
 172:	03 00       	.word	0x0003;	????	
 174:	7a 01       	.word	0x017a;	????	
 176:	9f 00       	.word	0x009f;	????	
 178:	00 00       	.word	0x0000;	????	
 17a:	00 06       	.word	0x0600;	????	
 17c:	01 08       	.word	0x0801;	????	
 17e:	01 02       	.word	0x0201;	????	
 180:	00 71       	subc	r1,	r0	
 182:	02 08       	.word	0x0802;	????	
 184:	01 0a       	.word	0x0a01;	????	
 186:	01 02       	.word	0x0201;	????	
 188:	00 71       	subc	r1,	r0	
 18a:	04 0a       	.word	0x0a04;	????	
 18c:	01 40       	mov	r0,	r1	
 18e:	01 02       	.word	0x0201;	????	
 190:	00 71       	subc	r1,	r0	
 192:	06 00       	.word	0x0006;	????	
 194:	00 00       	.word	0x0000;	????	
 196:	00 06       	.word	0x0600;	????	
 198:	01 10       	rrc	r1		
 19a:	01 01       	.word	0x0101;	????	
 19c:	00 5f       	add	r15,	r0	
 19e:	10 01       	.word	0x0110;	????	
 1a0:	3c 01       	.word	0x013c;	????	
 1a2:	01 00       	.word	0x0001;	????	
 1a4:	5a 00       	.word	0x005a;	????	
 1a6:	00 00       	.word	0x0000;	????	
 1a8:	00 06       	.word	0x0600;	????	
 1aa:	01 10       	rrc	r1		
 1ac:	01 01       	.word	0x0101;	????	
 1ae:	00 5e       	add	r14,	r0	
 1b0:	00 00       	.word	0x0000;	????	
 1b2:	00 00       	.word	0x0000;	????	
 1b4:	10 01       	.word	0x0110;	????	
 1b6:	34 01       	.word	0x0134;	????	
 1b8:	01 00       	.word	0x0001;	????	
 1ba:	5b 36       	jge	$-840    	;abs 0xfe72
 1bc:	01 3e       	jmp	$-1020   	;abs 0xfdc0
 1be:	01 01       	.word	0x0101;	????	
 1c0:	00 5b       	add	r11,	r0	
 1c2:	00 00       	.word	0x0000;	????	
 1c4:	00 00       	.word	0x0000;	????	
 1c6:	40 01       	.word	0x0140;	????	
 1c8:	42 01       	.word	0x0142;	????	
 1ca:	02 00       	.word	0x0002;	????	
 1cc:	71 02       	.word	0x0271;	????	
 1ce:	42 01       	.word	0x0142;	????	
 1d0:	44 01       	.word	0x0144;	????	
 1d2:	02 00       	.word	0x0002;	????	
 1d4:	71 04       	.word	0x0471;	????	
 1d6:	44 01       	.word	0x0144;	????	
 1d8:	46 01       	.word	0x0146;	????	
 1da:	02 00       	.word	0x0002;	????	
 1dc:	71 06       	.word	0x0671;	????	
 1de:	46 01       	.word	0x0146;	????	
 1e0:	48 01       	.word	0x0148;	????	
 1e2:	02 00       	.word	0x0002;	????	
 1e4:	71 08       	.word	0x0871;	????	
 1e6:	48 01       	.word	0x0148;	????	
 1e8:	6a 02       	.word	0x026a;	????	
 1ea:	02 00       	.word	0x0002;	????	
 1ec:	71 0a       	.word	0x0a71;	????	
 1ee:	00 00       	.word	0x0000;	????	
 1f0:	00 00       	.word	0x0000;	????	
 1f2:	40 01       	.word	0x0140;	????	
 1f4:	52 01       	.word	0x0152;	????	
 1f6:	02 00       	.word	0x0002;	????	
 1f8:	91 00       	.word	0x0091;	????	
 1fa:	52 01       	.word	0x0152;	????	
 1fc:	5e 01       	.word	0x015e;	????	
 1fe:	03 00       	.word	0x0003;	????	
 200:	7a 01       	.word	0x017a;	????	
 202:	9f 5e 01 54 	add	21505(r14),258(r15);0x5401(r14), 0x0102(r15)
 206:	02 01 
 208:	00 5a       	add	r10,	r0	
 20a:	54 02       	.word	0x0254;	????	
 20c:	56 02       	.word	0x0256;	????	
 20e:	03 00       	.word	0x0003;	????	
 210:	7a 01       	.word	0x017a;	????	
 212:	9f 56 02 5c 	add	23554(r6),258(r15);0x5c02(r6), 0x0102(r15)
 216:	02 01 
 218:	00 5a       	add	r10,	r0	
 21a:	5c 02       	.word	0x025c;	????	
 21c:	60 02       	.word	0x0260;	????	
 21e:	03 00       	.word	0x0003;	????	
 220:	7a 01       	.word	0x017a;	????	
 222:	9f 00       	.word	0x009f;	????	
 224:	00 00       	.word	0x0000;	????	
 226:	00 52       	add	r2,	r0	
 228:	01 5c       	add	r12,	r1	
 22a:	01 01       	.word	0x0101;	????	
 22c:	00 5f       	add	r15,	r0	
 22e:	5c 01       	.word	0x015c;	????	
 230:	5e 01       	.word	0x015e;	????	
 232:	02 00       	.word	0x0002;	????	
 234:	7a 01       	.word	0x017a;	????	
 236:	5e 01       	.word	0x015e;	????	
 238:	a5 01       	.word	0x01a5;	????	
 23a:	02 00       	.word	0x0002;	????	
 23c:	7a 7f       	subc.b	@r15+,	r10	
 23e:	a8 01       	.word	0x01a8;	????	
 240:	ae 01       	.word	0x01ae;	????	
 242:	01 00       	.word	0x0001;	????	
 244:	5f ae 01 b1 	dadd.b	-20223(r14),r15	;0xb101(r14)
 248:	01 02       	.word	0x0201;	????	
 24a:	00 7a       	subc	r10,	r0	
 24c:	7f b6       	bit.b	@r6+,	r15	
 24e:	01 ce       	bic	r14,	r1	
 250:	01 01       	.word	0x0101;	????	
 252:	00 5f       	add	r15,	r0	
 254:	ce 01       	.word	0x01ce;	????	
 256:	d1 01       	.word	0x01d1;	????	
 258:	02 00       	.word	0x0002;	????	
 25a:	7a 7f       	subc.b	@r15+,	r10	
 25c:	e0 01       	.word	0x01e0;	????	
 25e:	08 02       	.word	0x0208;	????	
 260:	01 00       	.word	0x0001;	????	
 262:	5f 08       	.word	0x085f;	????	
 264:	02 0b       	.word	0x0b02;	????	
 266:	02 02       	.word	0x0202;	????	
 268:	00 7a       	subc	r10,	r0	
 26a:	7f 1c       	.word	0x1c7f;	????	
 26c:	02 24       	jz	$+6      	;abs 0x272
 26e:	02 01       	.word	0x0102;	????	
 270:	00 5f       	add	r15,	r0	
 272:	24 02       	.word	0x0224;	????	
 274:	33 02       	.word	0x0233;	????	
 276:	02 00       	.word	0x0002;	????	
 278:	7a 7f       	subc.b	@r15+,	r10	
 27a:	54 02       	.word	0x0254;	????	
 27c:	59 02       	.word	0x0259;	????	
 27e:	01 00       	.word	0x0001;	????	
 280:	5f 5c 02 60 	add.b	24578(r12),r15	;0x6002(r12)
 284:	02 02       	.word	0x0202;	????	
 286:	00 7a       	subc	r10,	r0	
 288:	00 60       	rlc	r0		
 28a:	02 6a       	addc	r10,	r2	
 28c:	02 01       	.word	0x0102;	????	
 28e:	00 5f       	add	r15,	r0	
 290:	00 00       	.word	0x0000;	????	
 292:	00 00       	.word	0x0000;	????	
 294:	bc 01       	.word	0x01bc;	????	
 296:	ca 01       	.word	0x01ca;	????	
 298:	02 00       	.word	0x0002;	????	
 29a:	79 7e       	subc.b	@r14+,	r9	
 29c:	ca 01       	.word	0x01ca;	????	
 29e:	e0 01       	.word	0x01e0;	????	
 2a0:	01 00       	.word	0x0001;	????	
 2a2:	5b 22       	jnz	$-840    	;abs 0xff5a
 2a4:	02 33       	jn	$-506    	;abs 0xaa
 2a6:	02 02       	.word	0x0202;	????	
 2a8:	00 79       	subc	r9,	r0	
 2aa:	7e 33       	jn	$-258    	;abs 0x1a8
 2ac:	02 54       	add	r4,	r2	
 2ae:	02 01       	.word	0x0102;	????	
 2b0:	00 5b       	add	r11,	r0	
 2b2:	00 00       	.word	0x0000;	????	
 2b4:	00 00       	.word	0x0000;	????	
 2b6:	ea 01       	.word	0x01ea;	????	
 2b8:	04 02       	.word	0x0204;	????	
 2ba:	08 00       	.word	0x0008;	????	
 2bc:	78 7c       	subc.b	@r12+,	r8	
 2be:	93 02       	.word	0x0293;	????	
 2c0:	78 7e       	subc.b	@r14+,	r8	
 2c2:	93 02       	.word	0x0293;	????	
 2c4:	04 02       	.word	0x0204;	????	
 2c6:	0b 02       	.word	0x020b;	????	
 2c8:	07 00       	.word	0x0007;	????	
 2ca:	5c 93       	cmp.b	#1,	r12	;r3 As==01
 2cc:	02 78       	subc	r8,	r2	
 2ce:	7e 93       	cmp.b	#-1,	r14	;r3 As==11
 2d0:	02 0b       	.word	0x0b02;	????	
 2d2:	02 1a       	.word	0x1a02;	????	
 2d4:	02 06       	.word	0x0602;	????	
 2d6:	00 59       	add	r9,	r0	
 2d8:	93 02       	.word	0x0293;	????	
 2da:	5b 93       	cmp.b	#1,	r11	;r3 As==01
 2dc:	02 00       	.word	0x0002;	????	
 2de:	00 00       	.word	0x0000;	????	
 2e0:	00 50       	rla	r0		
 2e2:	01 a0       	dadd	r0,	r1	
 2e4:	01 01       	.word	0x0101;	????	
 2e6:	00 5b       	add	r11,	r0	
 2e8:	a0 01       	.word	0x01a0;	????	
 2ea:	a8 01       	.word	0x01a8;	????	
 2ec:	01 00       	.word	0x0001;	????	
 2ee:	59 a8 01 ac 	dadd.b	-21503(r8),r9	;0xac01(r8)
 2f2:	01 01       	.word	0x0101;	????	
 2f4:	00 5b       	add	r11,	r0	
 2f6:	ac 01       	.word	0x01ac;	????	
 2f8:	b6 01       	.word	0x01b6;	????	
 2fa:	01 00       	.word	0x0001;	????	
 2fc:	59 b6 01 ba 	bit.b	-17919(r6),r9	;0xba01(r6)
 300:	01 01       	.word	0x0101;	????	
 302:	00 5b       	add	r11,	r0	
 304:	ba 01       	.word	0x01ba;	????	
 306:	e0 01       	.word	0x01e0;	????	
 308:	01 00       	.word	0x0001;	????	
 30a:	59 e0 01 e4 	xor.b	-7167(r0),r9	;PC rel. 0xe70d
 30e:	01 01       	.word	0x0101;	????	
 310:	00 5b       	add	r11,	r0	
 312:	e4 01       	.word	0x01e4;	????	
 314:	1c 02       	.word	0x021c;	????	
 316:	01 00       	.word	0x0001;	????	
 318:	58 1c       	.word	0x1c58;	????	
 31a:	02 20       	jnz	$+6      	;abs 0x320
 31c:	02 01       	.word	0x0102;	????	
 31e:	00 5b       	add	r11,	r0	
 320:	20 02       	.word	0x0220;	????	
 322:	54 02       	.word	0x0254;	????	
 324:	01 00       	.word	0x0001;	????	
 326:	59 54 02 68 	add.b	26626(r4),r9	;0x6802(r4)
 32a:	02 01       	.word	0x0102;	????	
 32c:	00 5b       	add	r11,	r0	
 32e:	00 00       	.word	0x0000;	????	
 330:	00 00       	.word	0x0000;	????	
 332:	00 00       	.word	0x0000;	????	
 334:	03 00       	.word	0x0003;	????	
 336:	01 00       	.word	0x0001;	????	
 338:	5f 00       	.word	0x005f;	????	
 33a:	00 00       	.word	0x0000;	????	
 33c:	00 2a       	jnc	$-1022   	;abs 0xff3e
 33e:	01 37       	jge	$-508    	;abs 0x142
 340:	01 01       	.word	0x0101;	????	
 342:	00 5f       	add	r15,	r0	
 344:	00 00       	.word	0x0000;	????	
 346:	00 00       	.word	0x0000;	????	
 348:	00 00       	.word	0x0000;	????	
 34a:	10 00       	.word	0x0010;	????	
 34c:	01 00       	.word	0x0001;	????	
 34e:	5f 00       	.word	0x005f;	????	
 350:	00 00       	.word	0x0000;	????	
 352:	00 00       	.word	0x0000;	????	
 354:	00 02       	.word	0x0200;	????	
 356:	00 02       	.word	0x0200;	????	
 358:	00 71       	subc	r1,	r0	
 35a:	02 02       	.word	0x0202;	????	
 35c:	00 04       	.word	0x0400;	????	
 35e:	00 02       	.word	0x0200;	????	
 360:	00 71       	subc	r1,	r0	
 362:	04 04       	.word	0x0404;	????	
 364:	00 06       	.word	0x0600;	????	
 366:	00 02       	.word	0x0200;	????	
 368:	00 71       	subc	r1,	r0	
 36a:	06 06       	.word	0x0606;	????	
 36c:	00 08       	.word	0x0800;	????	
 36e:	00 02       	.word	0x0200;	????	
 370:	00 71       	subc	r1,	r0	
 372:	08 08       	.word	0x0808;	????	
 374:	00 6a       	addc	r10,	r0	
 376:	00 02       	.word	0x0200;	????	
 378:	00 71       	subc	r1,	r0	
 37a:	0a 00       	.word	0x000a;	????	
 37c:	00 00       	.word	0x0000;	????	
 37e:	00 00       	.word	0x0000;	????	
 380:	00 22       	jnz	$-1022   	;abs 0xff82
 382:	00 01       	.word	0x0100;	????	
 384:	00 5e       	add	r14,	r0	
 386:	00 00       	.word	0x0000;	????	
 388:	00 00       	.word	0x0000;	????	
 38a:	00 00       	.word	0x0000;	????	
 38c:	5a 00       	.word	0x005a;	????	
 38e:	01 00       	.word	0x0001;	????	
 390:	5d 00       	.word	0x005d;	????	
 392:	00 00       	.word	0x0000;	????	
 394:	00 2e       	jc	$-1022   	;abs 0xff96
 396:	00 32       	jn	$-1022   	;abs 0xff98
 398:	00 05       	.word	0x0500;	????	
 39a:	00 7f       	subc	r15,	r0	
 39c:	00 31       	jn	$+514    	;abs 0x59e
 39e:	1a 9f 32 00 	cmp	50(r15),r10	;0x0032(r15)
 3a2:	3c 00       	.word	0x003c;	????	
 3a4:	02 00       	.word	0x0002;	????	
 3a6:	31 9f       	cmp	@r15+,	r1	
 3a8:	3c 00       	.word	0x003c;	????	
 3aa:	3e 00       	.word	0x003e;	????	
 3ac:	02 00       	.word	0x0002;	????	
 3ae:	30 9f       	cmp	@r15+,	r0	
 3b0:	3e 00       	.word	0x003e;	????	
 3b2:	40 00       	.word	0x0040;	????	
 3b4:	05 00       	.word	0x0005;	????	
 3b6:	7f 00       	.word	0x007f;	????	
 3b8:	31 1a       	.word	0x1a31;	????	
 3ba:	9f 46 00 4a 	mov	18944(r6),256(r15);0x4a00(r6), 0x0100(r15)
 3be:	00 01 
 3c0:	00 5c       	add	r12,	r0	
 3c2:	4a 00       	.word	0x004a;	????	
 3c4:	58 00       	.word	0x0058;	????	
 3c6:	01 00       	.word	0x0001;	????	
 3c8:	58 58 00 5a 	add.b	23040(r8),r8	;0x5a00(r8)
 3cc:	00 05       	.word	0x0500;	????	
 3ce:	00 7d       	subc	r13,	r0	
 3d0:	00 31       	jn	$+514    	;abs 0x5d2
 3d2:	1a 9f 5a 00 	cmp	90(r15),r10	;0x005a(r15)
 3d6:	5c 00       	.word	0x005c;	????	
 3d8:	01 00       	.word	0x0001;	????	
 3da:	5d 5c 00 60 	add.b	24576(r12),r13	;0x6000(r12)
 3de:	00 02       	.word	0x0200;	????	
 3e0:	00 31       	jn	$+514    	;abs 0x5e2
 3e2:	9f 00       	.word	0x009f;	????	
 3e4:	00 00       	.word	0x0000;	????	
 3e6:	00 24       	jz	$+2      	;abs 0x3e8
 3e8:	00 60       	rlc	r0		
 3ea:	00 01       	.word	0x0100;	????	
 3ec:	00 5b       	add	r11,	r0	
 3ee:	00 00       	.word	0x0000;	????	
 3f0:	00 00       	.word	0x0000;	????	
 3f2:	08 00       	.word	0x0008;	????	
 3f4:	12 00       	.word	0x0012;	????	
 3f6:	01 00       	.word	0x0001;	????	
 3f8:	5f 12 00 20 	push.b	8192(r15)	;0x2000(r15)
 3fc:	00 01       	.word	0x0100;	????	
 3fe:	00 5c       	add	r12,	r0	
 400:	20 00       	.word	0x0020;	????	
 402:	3c 00       	.word	0x003c;	????	
 404:	01 00       	.word	0x0001;	????	
 406:	5f 3c       	jmp	$+192    	;abs 0x4c6
 408:	00 3e       	jmp	$-1022   	;abs 0xa
 40a:	00 01       	.word	0x0100;	????	
 40c:	00 59       	add	r9,	r0	
 40e:	3e 00       	.word	0x003e;	????	
 410:	40 00       	.word	0x0040;	????	
 412:	01 00       	.word	0x0001;	????	
 414:	5f 40 00 4a 	mov.b	18944(r0),r15	;PC rel. 0x4e16
 418:	00 01       	.word	0x0100;	????	
 41a:	00 59       	add	r9,	r0	
 41c:	4a 00       	.word	0x004a;	????	
 41e:	5c 00       	.word	0x005c;	????	
 420:	01 00       	.word	0x0001;	????	
 422:	5a 5c 00 60 	add.b	24576(r12),r10	;0x6000(r12)
 426:	00 01       	.word	0x0100;	????	
 428:	00 5c       	add	r12,	r0	
 42a:	00 00       	.word	0x0000;	????	
 42c:	00 00       	.word	0x0000;	????	
 42e:	00 00       	.word	0x0000;	????	
 430:	02 00       	.word	0x0002;	????	
 432:	02 00       	.word	0x0002;	????	
 434:	71 02       	.word	0x0271;	????	
 436:	02 00       	.word	0x0002;	????	
 438:	04 00       	.word	0x0004;	????	
 43a:	02 00       	.word	0x0002;	????	
 43c:	71 04       	.word	0x0471;	????	
 43e:	04 00       	.word	0x0004;	????	
 440:	06 00       	.word	0x0006;	????	
 442:	02 00       	.word	0x0002;	????	
 444:	71 06       	.word	0x0671;	????	
 446:	06 00       	.word	0x0006;	????	
 448:	40 00       	.word	0x0040;	????	
 44a:	02 00       	.word	0x0002;	????	
 44c:	71 08       	.word	0x0871;	????	
 44e:	00 00       	.word	0x0000;	????	
 450:	00 00       	.word	0x0000;	????	
 452:	00 00       	.word	0x0000;	????	
 454:	2e 00       	.word	0x002e;	????	
 456:	01 00       	.word	0x0001;	????	
 458:	5f 30       	jn	$+192    	;abs 0x518
 45a:	00 38       	jl	$+2      	;abs 0x45c
 45c:	00 01       	.word	0x0100;	????	
 45e:	00 5f       	add	r15,	r0	
 460:	00 00       	.word	0x0000;	????	
 462:	00 00       	.word	0x0000;	????	
 464:	08 00       	.word	0x0008;	????	
 466:	0e 00       	.word	0x000e;	????	
 468:	02 00       	.word	0x0002;	????	
 46a:	7f 00       	.word	0x007f;	????	
 46c:	0e 00       	.word	0x000e;	????	
 46e:	10 00       	.word	0x0010;	????	
 470:	01 00       	.word	0x0001;	????	
 472:	5d 10 00 12 	rrc.b	4608(r13)	;0x1200(r13)
 476:	00 03       	.word	0x0300;	????	
 478:	00 7d       	subc	r13,	r0	
 47a:	7f 9f       	cmp.b	@r15+,	r15	
 47c:	12 00       	.word	0x0012;	????	
 47e:	36 00       	.word	0x0036;	????	
 480:	01 00       	.word	0x0001;	????	
 482:	5d 36       	jge	$-836    	;abs 0x13e
 484:	00 38       	jl	$+2      	;abs 0x486
 486:	00 01       	.word	0x0100;	????	
 488:	00 5a       	add	r10,	r0	
 48a:	00 00       	.word	0x0000;	????	
 48c:	00 00       	.word	0x0000;	????	
 48e:	12 00       	.word	0x0012;	????	
 490:	14 00       	.word	0x0014;	????	
 492:	01 00       	.word	0x0001;	????	
 494:	5e 14       	.word	0x145e;	????	
 496:	00 16       	.word	0x1600;	????	
 498:	00 01       	.word	0x0100;	????	
 49a:	00 59       	add	r9,	r0	
 49c:	16 00       	.word	0x0016;	????	
 49e:	18 00       	.word	0x0018;	????	
 4a0:	03 00       	.word	0x0003;	????	
 4a2:	79 7f       	subc.b	@r15+,	r9	
 4a4:	9f 18       	.word	0x189f;	????	
 4a6:	00 36       	jge	$-1022   	;abs 0xa8
 4a8:	00 01       	.word	0x0100;	????	
 4aa:	00 59       	add	r9,	r0	
 4ac:	00 00       	.word	0x0000;	????	
 4ae:	00 00       	.word	0x0000;	????	
 4b0:	12 00       	.word	0x0012;	????	
 4b2:	36 00       	.word	0x0036;	????	
 4b4:	01 00       	.word	0x0001;	????	
 4b6:	5c 00       	.word	0x005c;	????	
 4b8:	00 00       	.word	0x0000;	????	
 4ba:	00 18       	.word	0x1800;	????	
 4bc:	00 36       	jge	$-1022   	;abs 0xbe
 4be:	00 01       	.word	0x0100;	????	
 4c0:	00 5b       	add	r11,	r0	
 4c2:	00 00       	.word	0x0000;	????	
 4c4:	00 00       	.word	0x0000;	????	
 4c6:	00 00       	.word	0x0000;	????	
 4c8:	02 00       	.word	0x0002;	????	
 4ca:	02 00       	.word	0x0002;	????	
 4cc:	71 02       	.word	0x0271;	????	
 4ce:	02 00       	.word	0x0002;	????	
 4d0:	8a 00       	.word	0x008a;	????	
 4d2:	02 00       	.word	0x0002;	????	
 4d4:	71 04       	.word	0x0471;	????	
 4d6:	00 00       	.word	0x0000;	????	
 4d8:	00 00       	.word	0x0000;	????	
 4da:	00 00       	.word	0x0000;	????	
 4dc:	06 00       	.word	0x0006;	????	
 4de:	01 00       	.word	0x0001;	????	
 4e0:	5f 06       	.word	0x065f;	????	
 4e2:	00 56       	add	r6,	r0	
 4e4:	00 01       	.word	0x0100;	????	
 4e6:	00 5e       	add	r14,	r0	
 4e8:	56 00       	.word	0x0056;	????	
 4ea:	60 00       	.word	0x0060;	????	
 4ec:	03 00       	.word	0x0003;	????	
 4ee:	7e 7f       	subc.b	@r15+,	r14	
 4f0:	9f 60 00 8a 	addc	-30208(r0),256(r15);PC rel. 0x8ef2, 0x0100(r15)
 4f4:	00 01 
 4f6:	00 5e       	add	r14,	r0	
 4f8:	00 00       	.word	0x0000;	????	
 4fa:	00 00       	.word	0x0000;	????	
 4fc:	04 00       	.word	0x0004;	????	
 4fe:	34 00       	.word	0x0034;	????	
 500:	02 00       	.word	0x0002;	????	
 502:	30 9f       	cmp	@r15+,	r0	
 504:	34 00       	.word	0x0034;	????	
 506:	3a 00       	.word	0x003a;	????	
 508:	02 00       	.word	0x0002;	????	
 50a:	31 9f       	cmp	@r15+,	r1	
 50c:	3a 00       	.word	0x003a;	????	
 50e:	44 00       	.word	0x0044;	????	
 510:	02 00       	.word	0x0002;	????	
 512:	30 9f       	cmp	@r15+,	r0	
 514:	44 00       	.word	0x0044;	????	
 516:	88 00       	.word	0x0088;	????	
 518:	01 00       	.word	0x0001;	????	
 51a:	5b 00       	.word	0x005b;	????	
 51c:	00 00       	.word	0x0000;	????	
 51e:	00 04       	.word	0x0400;	????	
 520:	00 54       	add	r4,	r0	
 522:	00 02       	.word	0x0200;	????	
 524:	00 30       	jn	$+2      	;abs 0x526
 526:	9f 54 00 60 	add	24576(r4),256(r15);0x6000(r4), 0x0100(r15)
 52a:	00 01 
 52c:	00 5d       	add	r13,	r0	
 52e:	60 00       	.word	0x0060;	????	
 530:	70 00       	.word	0x0070;	????	
 532:	01 00       	.word	0x0001;	????	
 534:	5f 78 00 7a 	subc.b	31232(r8),r15	;0x7a00(r8)
 538:	00 01       	.word	0x0100;	????	
 53a:	00 5d       	add	r13,	r0	
 53c:	7a 00       	.word	0x007a;	????	
 53e:	80 00       	.word	0x0080;	????	
 540:	01 00       	.word	0x0001;	????	
 542:	5f 80 00 82 	sub.b	-32256(r0),r15	;PC rel. 0x8744
 546:	00 04       	.word	0x0400;	????	
 548:	00 7f       	subc	r15,	r0	
 54a:	00 20       	jnz	$+2      	;abs 0x54c
 54c:	9f 82 00 84 	sub	&0x8400,256(r15);0x0100(r15)
 550:	00 01 
 552:	00 5f       	add	r15,	r0	
 554:	84 00       	.word	0x0084;	????	
 556:	86 00       	.word	0x0086;	????	
 558:	02 00       	.word	0x0002;	????	
 55a:	30 9f       	cmp	@r15+,	r0	
 55c:	00 00       	.word	0x0000;	????	
	...

Disassembly of section .debug_ranges:

00000000 <.debug_ranges>:
   0:	3e c0 24 c3 	bic	#-15580,r14	;#0xc324
   4:	00 00       	.word	0x0000;	????	
	...
